Component: ARM Compiler 5.06 update 1 (build 61) Tool: armlink [4d35a8]

==============================================================================

Section Cross References

    main.o(i.assert_nrf_callback) refers to app_error.o(i.app_error_handler) for app_error_handler
    main.o(i.ble_evt_dispatch) refers to ble_conn_state.o(i.ble_conn_state_on_ble_evt) for ble_conn_state_on_ble_evt
    main.o(i.ble_evt_dispatch) refers to peer_manager.o(i.pm_ble_evt_handler) for pm_ble_evt_handler
    main.o(i.ble_evt_dispatch) refers to ble_conn_state.o(i.ble_conn_state_role) for ble_conn_state_role
    main.o(i.ble_evt_dispatch) refers to ble_advertising.o(i.ble_advertising_on_ble_evt) for ble_advertising_on_ble_evt
    main.o(i.ble_evt_dispatch) refers to ble_conn_params.o(i.ble_conn_params_on_ble_evt) for ble_conn_params_on_ble_evt
    main.o(i.ble_evt_dispatch) refers to ble_hrs.o(i.ble_hrs_on_ble_evt) for ble_hrs_on_ble_evt
    main.o(i.ble_evt_dispatch) refers to ble_rscs.o(i.ble_rscs_on_ble_evt) for ble_rscs_on_ble_evt
    main.o(i.ble_evt_dispatch) refers to main.o(i.on_ble_central_evt) for on_ble_central_evt
    main.o(i.ble_evt_dispatch) refers to ble_hrs_c.o(i.ble_hrs_c_on_ble_evt) for ble_hrs_c_on_ble_evt
    main.o(i.ble_evt_dispatch) refers to ble_rscs_c.o(i.ble_rscs_c_on_ble_evt) for ble_rscs_c_on_ble_evt
    main.o(i.ble_evt_dispatch) refers to ble_db_discovery.o(i.ble_db_discovery_on_ble_evt) for ble_db_discovery_on_ble_evt
    main.o(i.ble_evt_dispatch) refers to main.o(.bss) for .bss
    main.o(i.ble_evt_dispatch) refers to main.o(.data) for .data
    main.o(i.ble_stack_init) refers to softdevice_handler.o(i.softdevice_handler_init) for softdevice_handler_init
    main.o(i.ble_stack_init) refers to app_error.o(i.app_error_handler_bare) for app_error_handler_bare
    main.o(i.ble_stack_init) refers to softdevice_handler.o(i.softdevice_enable_get_default_config) for softdevice_enable_get_default_config
    main.o(i.ble_stack_init) refers to softdevice_handler.o(i.sd_check_ram_start) for sd_check_ram_start
    main.o(i.ble_stack_init) refers to softdevice_handler.o(i.softdevice_enable) for softdevice_enable
    main.o(i.ble_stack_init) refers to softdevice_handler.o(i.softdevice_ble_evt_handler_set) for softdevice_ble_evt_handler_set
    main.o(i.ble_stack_init) refers to softdevice_handler.o(i.softdevice_sys_evt_handler_set) for softdevice_sys_evt_handler_set
    main.o(i.ble_stack_init) refers to main.o(.bss) for .bss
    main.o(i.ble_stack_init) refers to main.o(i.ble_evt_dispatch) for ble_evt_dispatch
    main.o(i.ble_stack_init) refers to main.o(i.sys_evt_dispatch) for sys_evt_dispatch
    main.o(i.conn_params_error_handler) refers to app_error.o(i.app_error_handler_bare) for app_error_handler_bare
    main.o(i.hrs_c_evt_handler) refers to ble_hrs.o(i.ble_hrs_heart_rate_measurement_send) for ble_hrs_heart_rate_measurement_send
    main.o(i.hrs_c_evt_handler) refers to peer_manager.o(i.pm_link_secure) for pm_link_secure
    main.o(i.hrs_c_evt_handler) refers to app_error.o(i.app_error_handler_bare) for app_error_handler_bare
    main.o(i.hrs_c_evt_handler) refers to ble_hrs_c.o(i.ble_hrs_c_hrm_notif_enable) for ble_hrs_c_hrm_notif_enable
    main.o(i.hrs_c_evt_handler) refers to main.o(.bss) for .bss
    main.o(i.main) refers to nrf_log.o(i.log_uart_init) for log_uart_init
    main.o(i.main) refers to app_error.o(i.app_error_handler_bare) for app_error_handler_bare
    main.o(i.main) refers to app_timer.o(i.app_timer_init) for app_timer_init
    main.o(i.main) refers to bsp.o(i.bsp_init) for bsp_init
    main.o(i.main) refers to bsp_btn_ble.o(i.bsp_btn_ble_init) for bsp_btn_ble_init
    main.o(i.main) refers to main.o(i.ble_stack_init) for ble_stack_init
    main.o(i.main) refers to main.o(i.peer_manager_init) for peer_manager_init
    main.o(i.main) refers to ble_db_discovery.o(i.ble_db_discovery_init) for ble_db_discovery_init
    main.o(i.main) refers to ble_hrs_c.o(i.ble_hrs_c_init) for ble_hrs_c_init
    main.o(i.main) refers to ble_rscs_c.o(i.ble_rscs_c_init) for ble_rscs_c_init
    main.o(i.main) refers to memseta.o(.text) for __aeabi_memclr4
    main.o(i.main) refers to ble_conn_params.o(i.ble_conn_params_init) for ble_conn_params_init
    main.o(i.main) refers to main.o(i.services_init) for services_init
    main.o(i.main) refers to ble_advertising.o(i.ble_advertising_init) for ble_advertising_init
    main.o(i.main) refers to main.o(i.scan_start) for scan_start
    main.o(i.main) refers to ble_advertising.o(i.ble_advertising_start) for ble_advertising_start
    main.o(i.main) refers to main.o(.bss) for .bss
    main.o(i.main) refers to main.o(i.hrs_c_evt_handler) for hrs_c_evt_handler
    main.o(i.main) refers to main.o(i.rscs_c_evt_handler) for rscs_c_evt_handler
    main.o(i.main) refers to main.o(i.conn_params_error_handler) for conn_params_error_handler
    main.o(i.main) refers to main.o(.data) for .data
    main.o(i.main) refers to main.o(i.on_adv_evt) for on_adv_evt
    main.o(i.on_adv_evt) refers to ble_advertising.o(i.ble_advertising_start) for ble_advertising_start
    main.o(i.on_adv_evt) refers to app_error.o(i.app_error_handler_bare) for app_error_handler_bare
    main.o(i.on_ble_central_evt) refers to app_error.o(i.app_error_handler_bare) for app_error_handler_bare
    main.o(i.on_ble_central_evt) refers to memcmp.o(.text) for memcmp
    main.o(i.on_ble_central_evt) refers to memseta.o(.text) for __aeabi_memclr
    main.o(i.on_ble_central_evt) refers to ble_db_discovery.o(i.ble_db_discovery_start) for ble_db_discovery_start
    main.o(i.on_ble_central_evt) refers to ble_conn_state.o(i.ble_conn_state_n_centrals) for ble_conn_state_n_centrals
    main.o(i.on_ble_central_evt) refers to main.o(i.scan_start) for scan_start
    main.o(i.on_ble_central_evt) refers to main.o(i.adv_report_parse) for adv_report_parse
    main.o(i.on_ble_central_evt) refers to memmovea.o(.text) for __aeabi_memcpy
    main.o(i.on_ble_central_evt) refers to main.o(.data) for .data
    main.o(i.on_ble_central_evt) refers to main.o(.bss) for .bss
    main.o(i.on_ble_central_evt) refers to main.o(.constdata) for .constdata
    main.o(i.peer_manager_init) refers to peer_manager.o(i.pm_init) for pm_init
    main.o(i.peer_manager_init) refers to app_error.o(i.app_error_handler_bare) for app_error_handler_bare
    main.o(i.peer_manager_init) refers to peer_manager.o(i.pm_peer_delete_all) for pm_peer_delete_all
    main.o(i.peer_manager_init) refers to peer_manager.o(i.pm_sec_params_set) for pm_sec_params_set
    main.o(i.peer_manager_init) refers to peer_manager.o(i.pm_register) for pm_register
    main.o(i.peer_manager_init) refers to main.o(i.pm_evt_handler) for pm_evt_handler
    main.o(i.pm_evt_handler) refers to main.o(i.__ARM_common_switch8) for __ARM_common_switch8
    main.o(i.pm_evt_handler) refers to peer_manager.o(i.pm_link_secure) for pm_link_secure
    main.o(i.pm_evt_handler) refers to app_error.o(i.app_error_handler_bare) for app_error_handler_bare
    main.o(i.pm_evt_handler) refers to peer_manager.o(i.pm_local_database_has_changed) for pm_local_database_has_changed
    main.o(i.rscs_c_evt_handler) refers to ble_rscs.o(i.ble_rscs_measurement_send) for ble_rscs_measurement_send
    main.o(i.rscs_c_evt_handler) refers to peer_manager.o(i.pm_link_secure) for pm_link_secure
    main.o(i.rscs_c_evt_handler) refers to app_error.o(i.app_error_handler_bare) for app_error_handler_bare
    main.o(i.rscs_c_evt_handler) refers to ble_rscs_c.o(i.ble_rscs_c_rsc_notif_enable) for ble_rscs_c_rsc_notif_enable
    main.o(i.rscs_c_evt_handler) refers to main.o(.bss) for .bss
    main.o(i.scan_start) refers to app_error.o(i.app_error_handler_bare) for app_error_handler_bare
    main.o(i.scan_start) refers to main.o(.constdata) for .constdata
    main.o(i.services_init) refers to memseta.o(.text) for __aeabi_memclr4
    main.o(i.services_init) refers to ble_hrs.o(i.ble_hrs_init) for ble_hrs_init
    main.o(i.services_init) refers to app_error.o(i.app_error_handler_bare) for app_error_handler_bare
    main.o(i.services_init) refers to ble_rscs.o(i.ble_rscs_init) for ble_rscs_init
    main.o(i.services_init) refers to main.o(.bss) for .bss
    main.o(i.sys_evt_dispatch) refers to ble_advertising.o(i.ble_advertising_on_sys_evt) for ble_advertising_on_sys_evt
    main.o(i.sys_evt_dispatch) refers to fstorage.o(i.fs_sys_event_handler) for fs_sys_event_handler
    bsp.o(i.bsp_button_event_handler) refers to app_timer.o(i.app_timer_start) for app_timer_start
    bsp.o(i.bsp_button_event_handler) refers to app_timer.o(i.app_timer_stop) for app_timer_stop
    bsp.o(i.bsp_button_event_handler) refers to bsp.o(.constdata) for .constdata
    bsp.o(i.bsp_button_event_handler) refers to bsp.o(.bss) for .bss
    bsp.o(i.bsp_button_event_handler) refers to bsp.o(.data) for .data
    bsp.o(i.bsp_button_is_pressed) refers to bsp.o(.constdata) for .constdata
    bsp.o(i.bsp_buttons_disable) refers to app_button.o(i.app_button_disable) for app_button_disable
    bsp.o(i.bsp_buttons_enable) refers to app_button.o(i.app_button_enable) for app_button_enable
    bsp.o(i.bsp_buttons_state_get) refers to bsp.o(.constdata) for .constdata
    bsp.o(i.bsp_event_to_button_action_assign) refers to bsp.o(.bss) for .bss
    bsp.o(i.bsp_indication_set) refers to bsp.o(i.bsp_led_indication) for bsp_led_indication
    bsp.o(i.bsp_indication_set) refers to bsp.o(.data) for .data
    bsp.o(i.bsp_indication_text_set) refers to bsp.o(i.bsp_indication_set) for bsp_indication_set
    bsp.o(i.bsp_init) refers to bsp.o(i.bsp_event_to_button_action_assign) for bsp_event_to_button_action_assign
    bsp.o(i.bsp_init) refers to app_button.o(i.app_button_init) for app_button_init
    bsp.o(i.bsp_init) refers to app_button.o(i.app_button_enable) for app_button_enable
    bsp.o(i.bsp_init) refers to app_timer.o(i.app_timer_create) for app_timer_create
    bsp.o(i.bsp_init) refers to bsp.o(.data) for .data
    bsp.o(i.bsp_init) refers to bsp.o(.constdata) for .constdata
    bsp.o(i.bsp_init) refers to bsp.o(i.button_timer_handler) for button_timer_handler
    bsp.o(i.bsp_init) refers to bsp.o(i.leds_timer_handler) for leds_timer_handler
    bsp.o(i.bsp_init) refers to bsp.o(i.alert_timer_handler) for alert_timer_handler
    bsp.o(i.bsp_led_indication) refers to main.o(i.__ARM_common_switch8) for __ARM_common_switch8
    bsp.o(i.bsp_led_indication) refers to uidiv.o(.text) for __aeabi_uidivmod
    bsp.o(i.bsp_led_indication) refers to app_timer.o(i.app_timer_start) for app_timer_start
    bsp.o(i.bsp_led_indication) refers to app_timer.o(i.app_timer_stop) for app_timer_stop
    bsp.o(i.bsp_led_indication) refers to bsp.o(.data) for .data
    bsp.o(i.bsp_led_indication) refers to bsp.o(.constdata) for .constdata
    bsp.o(i.bsp_wakeup_buttons_set) refers to bsp.o(.constdata) for .constdata
    bsp.o(i.button_timer_handler) refers to bsp.o(i.bsp_button_event_handler) for bsp_button_event_handler
    bsp.o(i.leds_timer_handler) refers to bsp.o(i.bsp_led_indication) for bsp_led_indication
    bsp.o(i.leds_timer_handler) refers to bsp.o(.data) for .data
    bsp.o(.constdata) refers to bsp.o(.bss) for m_leds_timer_id_data
    bsp.o(.constdata) refers to bsp.o(.bss) for m_alert_timer_id_data
    bsp.o(.constdata) refers to bsp.o(.bss) for m_button_timer_id_data
    bsp.o(.constdata) refers to bsp.o(i.bsp_button_event_handler) for bsp_button_event_handler
    bsp_btn_ble.o(i.advertising_buttons_configure) refers to bsp.o(i.bsp_event_to_button_action_assign) for bsp_event_to_button_action_assign
    bsp_btn_ble.o(i.bsp_btn_ble_init) refers to bsp.o(i.bsp_button_is_pressed) for bsp_button_is_pressed
    bsp_btn_ble.o(i.bsp_btn_ble_init) refers to bsp_btn_ble.o(i.advertising_buttons_configure) for advertising_buttons_configure
    bsp_btn_ble.o(i.bsp_btn_ble_init) refers to bsp_btn_ble.o(.data) for .data
    bsp_btn_ble.o(i.bsp_btn_ble_on_ble_evt) refers to bsp_btn_ble.o(i.advertising_buttons_configure) for advertising_buttons_configure
    bsp_btn_ble.o(i.bsp_btn_ble_on_ble_evt) refers to bsp.o(i.bsp_event_to_button_action_assign) for bsp_event_to_button_action_assign
    bsp_btn_ble.o(i.bsp_btn_ble_on_ble_evt) refers to bsp_btn_ble.o(.data) for .data
    bsp_btn_ble.o(i.bsp_btn_ble_sleep_mode_prepare) refers to bsp.o(i.bsp_wakeup_buttons_set) for bsp_wakeup_buttons_set
    arm_startup_nrf51.o(RESET) refers to arm_startup_nrf51.o(STACK) for __initial_sp
    arm_startup_nrf51.o(RESET) refers to arm_startup_nrf51.o(.text) for Reset_Handler
    arm_startup_nrf51.o(RESET) refers to nrf_drv_uart.o(i.UART0_IRQHandler) for UART0_IRQHandler
    arm_startup_nrf51.o(RESET) refers to nrf_drv_gpiote.o(i.GPIOTE_IRQHandler) for GPIOTE_IRQHandler
    arm_startup_nrf51.o(RESET) refers to app_timer.o(i.RTC1_IRQHandler) for RTC1_IRQHandler
    arm_startup_nrf51.o(RESET) refers to app_timer.o(i.SWI0_IRQHandler) for SWI0_IRQHandler
    arm_startup_nrf51.o(RESET) refers to softdevice_handler.o(i.SWI2_IRQHandler) for SWI2_IRQHandler
    arm_startup_nrf51.o(.text) refers to system_nrf51.o(i.SystemInit) for SystemInit
    arm_startup_nrf51.o(.text) refers to entry.o(.ARM.Collect$$$$00000000) for __main
    system_nrf51.o(i.SystemCoreClockUpdate) refers to system_nrf51.o(.data) for .data
    system_nrf51.o(i.SystemInit) refers to system_nrf51.o(i.is_manual_peripheral_setup_needed) for is_manual_peripheral_setup_needed
    ble_advdata.o(i.adv_data_encode) refers to ble_advdata.o(i.le_role_encode) for le_role_encode
    ble_advdata.o(i.adv_data_encode) refers to ble_advdata.o(i.ble_device_addr_encode) for ble_device_addr_encode
    ble_advdata.o(i.adv_data_encode) refers to ble_advdata.o(i.uint16_encode) for uint16_encode
    ble_advdata.o(i.adv_data_encode) refers to ble_advdata.o(i.uuid_list_encode) for uuid_list_encode
    ble_advdata.o(i.adv_data_encode) refers to ble_advdata.o(i.conn_int_encode) for conn_int_encode
    ble_advdata.o(i.adv_data_encode) refers to ble_advdata.o(i.manuf_specific_data_encode) for manuf_specific_data_encode
    ble_advdata.o(i.adv_data_encode) refers to ble_advdata.o(i.service_data_encode) for service_data_encode
    ble_advdata.o(i.adv_data_encode) refers to ble_advdata.o(i.name_encode) for name_encode
    ble_advdata.o(i.ble_advdata_set) refers to ble_advdata.o(i.adv_data_encode) for adv_data_encode
    ble_advdata.o(i.ble_device_addr_encode) refers to memmovea.o(.text) for __aeabi_memcpy
    ble_advdata.o(i.conn_int_encode) refers to ble_advdata.o(i.uint16_encode) for uint16_encode
    ble_advdata.o(i.manuf_specific_data_encode) refers to ble_advdata.o(i.uint16_encode) for uint16_encode
    ble_advdata.o(i.manuf_specific_data_encode) refers to memmovea.o(.text) for __aeabi_memcpy
    ble_advdata.o(i.service_data_encode) refers to ble_advdata.o(i.uint16_encode) for uint16_encode
    ble_advdata.o(i.service_data_encode) refers to memmovea.o(.text) for __aeabi_memcpy
    ble_advdata.o(i.uuid_list_encode) refers to ble_advdata.o(i.uuid_list_sized_encode) for uuid_list_sized_encode
    ble_advertising.o(i.ble_advertising_init) refers to memmovea.o(.text) for __aeabi_memcpy4
    ble_advertising.o(i.ble_advertising_init) refers to ble_advertising.o(i.ble_advertising_peer_address_clear) for ble_advertising_peer_address_clear
    ble_advertising.o(i.ble_advertising_init) refers to memseta.o(.text) for __aeabi_memclr4
    ble_advertising.o(i.ble_advertising_init) refers to ble_advdata.o(i.ble_advdata_set) for ble_advdata_set
    ble_advertising.o(i.ble_advertising_init) refers to ble_advertising.o(.data) for .data
    ble_advertising.o(i.ble_advertising_init) refers to ble_advertising.o(.bss) for .bss
    ble_advertising.o(i.ble_advertising_on_ble_evt) refers to ble_advertising.o(i.ble_advertising_start) for ble_advertising_start
    ble_advertising.o(i.ble_advertising_on_ble_evt) refers to ble_advertising.o(.data) for .data
    ble_advertising.o(i.ble_advertising_on_sys_evt) refers to ble_advertising.o(i.ble_advertising_start) for ble_advertising_start
    ble_advertising.o(i.ble_advertising_on_sys_evt) refers to ble_advertising.o(.data) for .data
    ble_advertising.o(i.ble_advertising_peer_addr_reply) refers to ble_advertising.o(.data) for .data
    ble_advertising.o(i.ble_advertising_peer_address_clear) refers to memseta.o(.text) for __aeabi_memclr4
    ble_advertising.o(i.ble_advertising_peer_address_clear) refers to ble_advertising.o(.data) for .data
    ble_advertising.o(i.ble_advertising_restart_without_whitelist) refers to ble_advertising.o(i.ble_advertising_start) for ble_advertising_start
    ble_advertising.o(i.ble_advertising_restart_without_whitelist) refers to ble_advertising.o(.bss) for .bss
    ble_advertising.o(i.ble_advertising_restart_without_whitelist) refers to ble_advertising.o(.data) for .data
    ble_advertising.o(i.ble_advertising_start) refers to pstorage.o(i.pstorage_access_status_get) for pstorage_access_status_get
    ble_advertising.o(i.ble_advertising_start) refers to ble_advertising.o(i.ble_advertising_peer_address_clear) for ble_advertising_peer_address_clear
    ble_advertising.o(i.ble_advertising_start) refers to ble_advertising.o(i.peer_address_exists) for peer_address_exists
    ble_advertising.o(i.ble_advertising_start) refers to memseta.o(.text) for __aeabi_memclr4
    ble_advertising.o(i.ble_advertising_start) refers to ble_advertising.o(i.whitelist_has_entries) for whitelist_has_entries
    ble_advertising.o(i.ble_advertising_start) refers to ble_advdata.o(i.ble_advdata_set) for ble_advdata_set
    ble_advertising.o(i.ble_advertising_start) refers to ble_advertising.o(.data) for .data
    ble_advertising.o(i.ble_advertising_start) refers to ble_advertising.o(.bss) for .bss
    ble_advertising.o(i.ble_advertising_whitelist_reply) refers to ble_advertising.o(.data) for .data
    ble_advertising.o(i.ble_advertising_whitelist_reply) refers to ble_advertising.o(.bss) for .bss
    ble_conn_params.o(i.ble_conn_params_change_conn_params) refers to memmovea.o(.text) for __aeabi_memcpy
    ble_conn_params.o(i.ble_conn_params_change_conn_params) refers to ble_conn_params.o(i.is_conn_params_ok) for is_conn_params_ok
    ble_conn_params.o(i.ble_conn_params_change_conn_params) refers to ble_conn_params.o(.data) for .data
    ble_conn_params.o(i.ble_conn_params_change_conn_params) refers to ble_conn_params.o(.bss) for .bss
    ble_conn_params.o(i.ble_conn_params_init) refers to memmovea.o(.text) for __aeabi_memcpy4
    ble_conn_params.o(i.ble_conn_params_init) refers to app_timer.o(i.app_timer_create) for app_timer_create
    ble_conn_params.o(i.ble_conn_params_init) refers to ble_conn_params.o(.bss) for .bss
    ble_conn_params.o(i.ble_conn_params_init) refers to ble_conn_params.o(.data) for .data
    ble_conn_params.o(i.ble_conn_params_init) refers to ble_conn_params.o(i.update_timeout_handler) for update_timeout_handler
    ble_conn_params.o(i.ble_conn_params_init) refers to ble_conn_params.o(.constdata) for .constdata
    ble_conn_params.o(i.ble_conn_params_on_ble_evt) refers to memmovea.o(.text) for __aeabi_memcpy
    ble_conn_params.o(i.ble_conn_params_on_ble_evt) refers to ble_conn_params.o(i.conn_params_negotiation) for conn_params_negotiation
    ble_conn_params.o(i.ble_conn_params_on_ble_evt) refers to app_timer.o(i.app_timer_stop) for app_timer_stop
    ble_conn_params.o(i.ble_conn_params_on_ble_evt) refers to ble_conn_params.o(.data) for .data
    ble_conn_params.o(i.ble_conn_params_on_ble_evt) refers to ble_conn_params.o(.bss) for .bss
    ble_conn_params.o(i.ble_conn_params_on_ble_evt) refers to ble_conn_params.o(.constdata) for .constdata
    ble_conn_params.o(i.ble_conn_params_stop) refers to app_timer.o(i.app_timer_stop) for app_timer_stop
    ble_conn_params.o(i.ble_conn_params_stop) refers to ble_conn_params.o(.constdata) for .constdata
    ble_conn_params.o(i.conn_params_negotiation) refers to ble_conn_params.o(i.is_conn_params_ok) for is_conn_params_ok
    ble_conn_params.o(i.conn_params_negotiation) refers to app_timer.o(i.app_timer_start) for app_timer_start
    ble_conn_params.o(i.conn_params_negotiation) refers to ble_conn_params.o(.data) for .data
    ble_conn_params.o(i.conn_params_negotiation) refers to ble_conn_params.o(.bss) for .bss
    ble_conn_params.o(i.conn_params_negotiation) refers to ble_conn_params.o(.constdata) for .constdata
    ble_conn_params.o(i.is_conn_params_ok) refers to ble_conn_params.o(.data) for .data
    ble_conn_params.o(i.update_timeout_handler) refers to ble_conn_params.o(.data) for .data
    ble_conn_params.o(i.update_timeout_handler) refers to ble_conn_params.o(.bss) for .bss
    ble_conn_params.o(.constdata) refers to ble_conn_params.o(.bss) for m_conn_params_timer_id_data
    ble_conn_state.o(i.bcs_internal_state_reset) refers to memseta.o(.text) for __aeabi_memclr
    ble_conn_state.o(i.bcs_internal_state_reset) refers to ble_conn_state.o(.bss) for .bss
    ble_conn_state.o(i.ble_conn_state_central_handles) refers to sdk_mapped_flags.o(i.sdk_mapped_flags_key_list_get) for sdk_mapped_flags_key_list_get
    ble_conn_state.o(i.ble_conn_state_central_handles) refers to ble_conn_state.o(.bss) for .bss
    ble_conn_state.o(i.ble_conn_state_conn_handles) refers to sdk_mapped_flags.o(i.sdk_mapped_flags_key_list_get) for sdk_mapped_flags_key_list_get
    ble_conn_state.o(i.ble_conn_state_conn_handles) refers to ble_conn_state.o(.bss) for .bss
    ble_conn_state.o(i.ble_conn_state_encrypted) refers to sdk_mapped_flags.o(i.sdk_mapped_flags_get_by_key) for sdk_mapped_flags_get_by_key
    ble_conn_state.o(i.ble_conn_state_encrypted) refers to ble_conn_state.o(.bss) for .bss
    ble_conn_state.o(i.ble_conn_state_init) refers to ble_conn_state.o(i.bcs_internal_state_reset) for bcs_internal_state_reset
    ble_conn_state.o(i.ble_conn_state_mitm_protected) refers to sdk_mapped_flags.o(i.sdk_mapped_flags_get_by_key) for sdk_mapped_flags_get_by_key
    ble_conn_state.o(i.ble_conn_state_mitm_protected) refers to ble_conn_state.o(.bss) for .bss
    ble_conn_state.o(i.ble_conn_state_n_centrals) refers to sdk_mapped_flags.o(i.sdk_mapped_flags_n_flags_set) for sdk_mapped_flags_n_flags_set
    ble_conn_state.o(i.ble_conn_state_n_centrals) refers to ble_conn_state.o(.bss) for .bss
    ble_conn_state.o(i.ble_conn_state_n_connections) refers to sdk_mapped_flags.o(i.sdk_mapped_flags_n_flags_set) for sdk_mapped_flags_n_flags_set
    ble_conn_state.o(i.ble_conn_state_n_connections) refers to ble_conn_state.o(.bss) for .bss
    ble_conn_state.o(i.ble_conn_state_n_peripherals) refers to sdk_mapped_flags.o(i.sdk_mapped_flags_n_flags_set) for sdk_mapped_flags_n_flags_set
    ble_conn_state.o(i.ble_conn_state_n_peripherals) refers to ble_conn_state.o(.bss) for .bss
    ble_conn_state.o(i.ble_conn_state_on_ble_evt) refers to sdk_mapped_flags.o(i.sdk_mapped_flags_key_list_get) for sdk_mapped_flags_key_list_get
    ble_conn_state.o(i.ble_conn_state_on_ble_evt) refers to memmovea.o(.text) for __aeabi_memcpy4
    ble_conn_state.o(i.ble_conn_state_on_ble_evt) refers to sdk_mapped_flags.o(i.sdk_mapped_flags_bulk_update_by_key) for sdk_mapped_flags_bulk_update_by_key
    ble_conn_state.o(i.ble_conn_state_on_ble_evt) refers to sdk_mapped_flags.o(i.sdk_mapped_flags_first_key_index_get) for sdk_mapped_flags_first_key_index_get
    ble_conn_state.o(i.ble_conn_state_on_ble_evt) refers to sdk_mapped_flags.o(i.sdk_mapped_flags_update_by_key) for sdk_mapped_flags_update_by_key
    ble_conn_state.o(i.ble_conn_state_on_ble_evt) refers to app_error.o(i.app_error_handler_bare) for app_error_handler_bare
    ble_conn_state.o(i.ble_conn_state_on_ble_evt) refers to ble_conn_state.o(.bss) for .bss
    ble_conn_state.o(i.ble_conn_state_periph_handles) refers to sdk_mapped_flags.o(i.sdk_mapped_flags_key_list_get) for sdk_mapped_flags_key_list_get
    ble_conn_state.o(i.ble_conn_state_periph_handles) refers to ble_conn_state.o(.bss) for .bss
    ble_conn_state.o(i.ble_conn_state_role) refers to sdk_mapped_flags.o(i.sdk_mapped_flags_get_by_key) for sdk_mapped_flags_get_by_key
    ble_conn_state.o(i.ble_conn_state_role) refers to ble_conn_state.o(.bss) for .bss
    ble_conn_state.o(i.ble_conn_state_status) refers to sdk_mapped_flags.o(i.sdk_mapped_flags_get_by_key) for sdk_mapped_flags_get_by_key
    ble_conn_state.o(i.ble_conn_state_status) refers to ble_conn_state.o(.bss) for .bss
    ble_conn_state.o(i.ble_conn_state_user_flag_acquire) refers to ble_conn_state.o(i.user_flag_is_acquired) for user_flag_is_acquired
    ble_conn_state.o(i.ble_conn_state_user_flag_acquire) refers to ble_conn_state.o(.bss) for .bss
    ble_conn_state.o(i.ble_conn_state_user_flag_collection) refers to ble_conn_state.o(i.user_flag_is_acquired) for user_flag_is_acquired
    ble_conn_state.o(i.ble_conn_state_user_flag_collection) refers to ble_conn_state.o(.bss) for .bss
    ble_conn_state.o(i.ble_conn_state_user_flag_get) refers to ble_conn_state.o(i.user_flag_is_acquired) for user_flag_is_acquired
    ble_conn_state.o(i.ble_conn_state_user_flag_get) refers to sdk_mapped_flags.o(i.sdk_mapped_flags_get_by_key) for sdk_mapped_flags_get_by_key
    ble_conn_state.o(i.ble_conn_state_user_flag_get) refers to ble_conn_state.o(.bss) for .bss
    ble_conn_state.o(i.ble_conn_state_user_flag_set) refers to ble_conn_state.o(i.user_flag_is_acquired) for user_flag_is_acquired
    ble_conn_state.o(i.ble_conn_state_user_flag_set) refers to sdk_mapped_flags.o(i.sdk_mapped_flags_update_by_key) for sdk_mapped_flags_update_by_key
    ble_conn_state.o(i.ble_conn_state_user_flag_set) refers to ble_conn_state.o(.bss) for .bss
    ble_conn_state.o(i.ble_conn_state_valid) refers to sdk_mapped_flags.o(i.sdk_mapped_flags_get_by_key) for sdk_mapped_flags_get_by_key
    ble_conn_state.o(i.ble_conn_state_valid) refers to ble_conn_state.o(.bss) for .bss
    ble_conn_state.o(i.user_flag_is_acquired) refers to ble_conn_state.o(.bss) for .bss
    ble_db_discovery.o(i.ble_db_discovery_close) refers to ble_db_discovery.o(.data) for .data
    ble_db_discovery.o(i.ble_db_discovery_evt_register) refers to ble_db_discovery.o(.data) for .data
    ble_db_discovery.o(i.ble_db_discovery_evt_register) refers to ble_db_discovery.o(.bss) for .bss
    ble_db_discovery.o(i.ble_db_discovery_init) refers to ble_db_discovery.o(.data) for .data
    ble_db_discovery.o(i.ble_db_discovery_on_ble_evt) refers to memseta.o(.text) for __aeabi_memclr
    ble_db_discovery.o(i.ble_db_discovery_on_ble_evt) refers to ble_db_discovery.o(i.on_descriptor_discovery_rsp) for on_descriptor_discovery_rsp
    ble_db_discovery.o(i.ble_db_discovery_on_ble_evt) refers to ble_db_discovery.o(i.discovery_complete_evt_trigger) for discovery_complete_evt_trigger
    ble_db_discovery.o(i.ble_db_discovery_on_ble_evt) refers to ble_db_discovery.o(i.on_srv_disc_completion) for on_srv_disc_completion
    ble_db_discovery.o(i.ble_db_discovery_on_ble_evt) refers to ble_db_discovery.o(i.characteristics_discover) for characteristics_discover
    ble_db_discovery.o(i.ble_db_discovery_on_ble_evt) refers to ble_db_discovery.o(i.discovery_error_evt_trigger) for discovery_error_evt_trigger
    ble_db_discovery.o(i.ble_db_discovery_on_ble_evt) refers to ble_db_discovery.o(i.on_characteristic_discovery_rsp) for on_characteristic_discovery_rsp
    ble_db_discovery.o(i.ble_db_discovery_on_ble_evt) refers to ble_db_discovery.o(.data) for .data
    ble_db_discovery.o(i.ble_db_discovery_start) refers to ble_db_discovery.o(.data) for .data
    ble_db_discovery.o(i.ble_db_discovery_start) refers to ble_db_discovery.o(.bss) for .bss
    ble_db_discovery.o(i.descriptors_discover) refers to ble_db_discovery.o(i.is_desc_discovery_reqd) for is_desc_discovery_reqd
    ble_db_discovery.o(i.discovery_complete_evt_trigger) refers to ble_db_discovery.o(i.registered_handler_get) for registered_handler_get
    ble_db_discovery.o(i.discovery_complete_evt_trigger) refers to memmovea.o(.text) for __aeabi_memcpy
    ble_db_discovery.o(i.discovery_complete_evt_trigger) refers to ble_db_discovery.o(i.pending_user_evts_send) for pending_user_evts_send
    ble_db_discovery.o(i.discovery_complete_evt_trigger) refers to ble_db_discovery.o(.data) for .data
    ble_db_discovery.o(i.discovery_complete_evt_trigger) refers to ble_db_discovery.o(.bss) for .bss
    ble_db_discovery.o(i.discovery_error_evt_trigger) refers to ble_db_discovery.o(i.registered_handler_get) for registered_handler_get
    ble_db_discovery.o(i.discovery_error_evt_trigger) refers to ble_db_discovery.o(i.pending_user_evts_send) for pending_user_evts_send
    ble_db_discovery.o(i.discovery_error_evt_trigger) refers to ble_db_discovery.o(.data) for .data
    ble_db_discovery.o(i.discovery_error_evt_trigger) refers to ble_db_discovery.o(.bss) for .bss
    ble_db_discovery.o(i.on_characteristic_discovery_rsp) refers to memmovea.o(.text) for __aeabi_memcpy
    ble_db_discovery.o(i.on_characteristic_discovery_rsp) refers to ble_db_discovery.o(i.characteristics_discover) for characteristics_discover
    ble_db_discovery.o(i.on_characteristic_discovery_rsp) refers to ble_db_discovery.o(i.descriptors_discover) for descriptors_discover
    ble_db_discovery.o(i.on_characteristic_discovery_rsp) refers to ble_db_discovery.o(i.discovery_error_evt_trigger) for discovery_error_evt_trigger
    ble_db_discovery.o(i.on_characteristic_discovery_rsp) refers to ble_db_discovery.o(i.discovery_complete_evt_trigger) for discovery_complete_evt_trigger
    ble_db_discovery.o(i.on_characteristic_discovery_rsp) refers to ble_db_discovery.o(i.on_srv_disc_completion) for on_srv_disc_completion
    ble_db_discovery.o(i.on_descriptor_discovery_rsp) refers to ble_db_discovery.o(i.descriptors_discover) for descriptors_discover
    ble_db_discovery.o(i.on_descriptor_discovery_rsp) refers to ble_db_discovery.o(i.discovery_error_evt_trigger) for discovery_error_evt_trigger
    ble_db_discovery.o(i.on_descriptor_discovery_rsp) refers to ble_db_discovery.o(i.discovery_complete_evt_trigger) for discovery_complete_evt_trigger
    ble_db_discovery.o(i.on_descriptor_discovery_rsp) refers to ble_db_discovery.o(i.on_srv_disc_completion) for on_srv_disc_completion
    ble_db_discovery.o(i.on_srv_disc_completion) refers to ble_db_discovery.o(i.discovery_error_evt_trigger) for discovery_error_evt_trigger
    ble_db_discovery.o(i.on_srv_disc_completion) refers to ble_db_discovery.o(.data) for .data
    ble_db_discovery.o(i.on_srv_disc_completion) refers to ble_db_discovery.o(.bss) for .bss
    ble_db_discovery.o(i.pending_user_evts_send) refers to ble_db_discovery.o(.data) for .data
    ble_db_discovery.o(i.pending_user_evts_send) refers to ble_db_discovery.o(.bss) for .bss
    ble_db_discovery.o(i.registered_handler_get) refers to ble_db_discovery.o(.bss) for .bss
    ble_db_discovery.o(i.registered_handler_get) refers to ble_db_discovery.o(.data) for .data
    gatt_cache_manager.o(i.gcm_ble_evt_handler) refers to gatt_cache_manager.o(i.local_db_apply_in_evt) for local_db_apply_in_evt
    gatt_cache_manager.o(i.gcm_ble_evt_handler) refers to id_manager.o(i.im_peer_id_get_by_conn_handle) for im_peer_id_get_by_conn_handle
    gatt_cache_manager.o(i.gcm_ble_evt_handler) refers to gatts_cache_manager.o(i.gscm_peer_was_notified_of_db_change) for gscm_peer_was_notified_of_db_change
    gatt_cache_manager.o(i.gcm_ble_evt_handler) refers to ble_conn_state.o(i.ble_conn_state_user_flag_set) for ble_conn_state_user_flag_set
    gatt_cache_manager.o(i.gcm_ble_evt_handler) refers to gatt_cache_manager.o(i.local_db_update_in_evt) for local_db_update_in_evt
    gatt_cache_manager.o(i.gcm_ble_evt_handler) refers to ble_conn_state.o(i.ble_conn_state_user_flag_collection) for ble_conn_state_user_flag_collection
    gatt_cache_manager.o(i.gcm_ble_evt_handler) refers to ble_conn_state.o(i.ble_conn_state_conn_handles) for ble_conn_state_conn_handles
    gatt_cache_manager.o(i.gcm_ble_evt_handler) refers to memmovea.o(.text) for __aeabi_memcpy4
    gatt_cache_manager.o(i.gcm_ble_evt_handler) refers to ble_conn_state.o(i.ble_conn_state_user_flag_get) for ble_conn_state_user_flag_get
    gatt_cache_manager.o(i.gcm_ble_evt_handler) refers to gatt_cache_manager.o(i.service_changed_pending_flags_check) for service_changed_pending_flags_check
    gatt_cache_manager.o(i.gcm_ble_evt_handler) refers to gatt_cache_manager.o(.data) for .data
    gatt_cache_manager.o(i.gcm_init) refers to gatts_cache_manager.o(i.gscm_init) for gscm_init
    gatt_cache_manager.o(i.gcm_init) refers to gattc_cache_manager.o(i.gccm_init) for gccm_init
    gatt_cache_manager.o(i.gcm_init) refers to id_manager.o(i.im_register) for im_register
    gatt_cache_manager.o(i.gcm_init) refers to security_dispatcher.o(i.smd_register) for smd_register
    gatt_cache_manager.o(i.gcm_init) refers to ble_conn_state.o(i.ble_conn_state_user_flag_acquire) for ble_conn_state_user_flag_acquire
    gatt_cache_manager.o(i.gcm_init) refers to gatt_cache_manager.o(i.gscm_evt_handler) for gscm_evt_handler
    gatt_cache_manager.o(i.gcm_init) refers to gatt_cache_manager.o(i.gccm_evt_handler) for gccm_evt_handler
    gatt_cache_manager.o(i.gcm_init) refers to gatt_cache_manager.o(.data) for .data
    gatt_cache_manager.o(i.gcm_init) refers to gatt_cache_manager.o(i.im_evt_handler) for im_evt_handler
    gatt_cache_manager.o(i.gcm_init) refers to gatt_cache_manager.o(i.smd_evt_handler) for smd_evt_handler
    gatt_cache_manager.o(i.gcm_local_database_has_changed) refers to gatts_cache_manager.o(i.gscm_local_database_has_changed) for gscm_local_database_has_changed
    gatt_cache_manager.o(i.gcm_local_database_has_changed) refers to ble_conn_state.o(i.ble_conn_state_conn_handles) for ble_conn_state_conn_handles
    gatt_cache_manager.o(i.gcm_local_database_has_changed) refers to id_manager.o(i.im_peer_id_get_by_conn_handle) for im_peer_id_get_by_conn_handle
    gatt_cache_manager.o(i.gcm_local_database_has_changed) refers to ble_conn_state.o(i.ble_conn_state_user_flag_set) for ble_conn_state_user_flag_set
    gatt_cache_manager.o(i.gcm_local_database_has_changed) refers to gatt_cache_manager.o(i.service_changed_pending_flags_check) for service_changed_pending_flags_check
    gatt_cache_manager.o(i.gcm_local_database_has_changed) refers to gatt_cache_manager.o(.data) for .data
    gatt_cache_manager.o(i.gcm_local_db_cache_get) refers to gatts_cache_manager.o(i.gscm_local_db_cache_get) for gscm_local_db_cache_get
    gatt_cache_manager.o(i.gcm_local_db_cache_get) refers to gatt_cache_manager.o(.data) for .data
    gatt_cache_manager.o(i.gcm_local_db_cache_set) refers to gatts_cache_manager.o(i.gscm_local_db_cache_set) for gscm_local_db_cache_set
    gatt_cache_manager.o(i.gcm_local_db_cache_set) refers to gatt_cache_manager.o(.data) for .data
    gatt_cache_manager.o(i.gcm_local_db_cache_update) refers to gatts_cache_manager.o(i.gscm_local_db_cache_update) for gscm_local_db_cache_update
    gatt_cache_manager.o(i.gcm_local_db_cache_update) refers to ble_conn_state.o(i.ble_conn_state_user_flag_set) for ble_conn_state_user_flag_set
    gatt_cache_manager.o(i.gcm_local_db_cache_update) refers to gatt_cache_manager.o(.data) for .data
    gatt_cache_manager.o(i.gcm_remote_db_retrieve) refers to gattc_cache_manager.o(i.gccm_remote_db_retrieve) for gccm_remote_db_retrieve
    gatt_cache_manager.o(i.gcm_remote_db_retrieve) refers to gatt_cache_manager.o(.data) for .data
    gatt_cache_manager.o(i.gcm_remote_db_store) refers to gattc_cache_manager.o(i.gccm_remote_db_store) for gccm_remote_db_store
    gatt_cache_manager.o(i.gcm_remote_db_store) refers to gatt_cache_manager.o(.data) for .data
    gatt_cache_manager.o(i.gscm_evt_handler) refers to id_manager.o(i.im_conn_handle_get) for im_conn_handle_get
    gatt_cache_manager.o(i.gscm_evt_handler) refers to ble_conn_state.o(i.ble_conn_state_user_flag_set) for ble_conn_state_user_flag_set
    gatt_cache_manager.o(i.gscm_evt_handler) refers to gatt_cache_manager.o(i.local_db_apply_in_evt) for local_db_apply_in_evt
    gatt_cache_manager.o(i.gscm_evt_handler) refers to gatt_cache_manager.o(.data) for .data
    gatt_cache_manager.o(i.im_evt_handler) refers to gatt_cache_manager.o(i.local_db_apply_in_evt) for local_db_apply_in_evt
    gatt_cache_manager.o(i.im_evt_handler) refers to gatts_cache_manager.o(i.gscm_service_changed_ind_needed) for gscm_service_changed_ind_needed
    gatt_cache_manager.o(i.im_evt_handler) refers to ble_conn_state.o(i.ble_conn_state_user_flag_set) for ble_conn_state_user_flag_set
    gatt_cache_manager.o(i.im_evt_handler) refers to gatt_cache_manager.o(.data) for .data
    gatt_cache_manager.o(i.local_db_apply_in_evt) refers to gatts_cache_manager.o(i.gscm_local_db_cache_apply) for gscm_local_db_cache_apply
    gatt_cache_manager.o(i.local_db_apply_in_evt) refers to id_manager.o(i.im_peer_id_get_by_conn_handle) for im_peer_id_get_by_conn_handle
    gatt_cache_manager.o(i.local_db_apply_in_evt) refers to ble_conn_state.o(i.ble_conn_state_user_flag_set) for ble_conn_state_user_flag_set
    gatt_cache_manager.o(i.local_db_apply_in_evt) refers to gatt_cache_manager.o(.data) for .data
    gatt_cache_manager.o(i.local_db_update_in_evt) refers to gatts_cache_manager.o(i.gscm_local_db_cache_update) for gscm_local_db_cache_update
    gatt_cache_manager.o(i.local_db_update_in_evt) refers to id_manager.o(i.im_peer_id_get_by_conn_handle) for im_peer_id_get_by_conn_handle
    gatt_cache_manager.o(i.local_db_update_in_evt) refers to ble_conn_state.o(i.ble_conn_state_user_flag_set) for ble_conn_state_user_flag_set
    gatt_cache_manager.o(i.local_db_update_in_evt) refers to gatt_cache_manager.o(.data) for .data
    gatt_cache_manager.o(i.service_changed_pending_flags_check) refers to ble_conn_state.o(i.ble_conn_state_user_flag_collection) for ble_conn_state_user_flag_collection
    gatt_cache_manager.o(i.service_changed_pending_flags_check) refers to ble_conn_state.o(i.ble_conn_state_conn_handles) for ble_conn_state_conn_handles
    gatt_cache_manager.o(i.service_changed_pending_flags_check) refers to memmovea.o(.text) for __aeabi_memcpy4
    gatt_cache_manager.o(i.service_changed_pending_flags_check) refers to ble_conn_state.o(i.ble_conn_state_user_flag_get) for ble_conn_state_user_flag_get
    gatt_cache_manager.o(i.service_changed_pending_flags_check) refers to gatts_cache_manager.o(i.gscm_service_changed_ind_send) for gscm_service_changed_ind_send
    gatt_cache_manager.o(i.service_changed_pending_flags_check) refers to gatt_cache_manager.o(i.local_db_apply_in_evt) for local_db_apply_in_evt
    gatt_cache_manager.o(i.service_changed_pending_flags_check) refers to id_manager.o(i.im_peer_id_get_by_conn_handle) for im_peer_id_get_by_conn_handle
    gatt_cache_manager.o(i.service_changed_pending_flags_check) refers to ble_conn_state.o(i.ble_conn_state_user_flag_set) for ble_conn_state_user_flag_set
    gatt_cache_manager.o(i.service_changed_pending_flags_check) refers to gatt_cache_manager.o(.data) for .data
    gatt_cache_manager.o(i.smd_evt_handler) refers to gatt_cache_manager.o(i.local_db_update_in_evt) for local_db_update_in_evt
    gattc_cache_manager.o(i.gccm_init) refers to peer_database.o(i.pdb_register) for pdb_register
    gattc_cache_manager.o(i.gccm_init) refers to gattc_cache_manager.o(i.pdb_evt_handler) for pdb_evt_handler
    gattc_cache_manager.o(i.gccm_init) refers to gattc_cache_manager.o(.data) for .data
    gattc_cache_manager.o(i.gccm_remote_db_retrieve) refers to peer_database.o(i.pdb_raw_read) for pdb_raw_read
    gattc_cache_manager.o(i.gccm_remote_db_retrieve) refers to gattc_cache_manager.o(.data) for .data
    gattc_cache_manager.o(i.gccm_remote_db_store) refers to peer_database.o(i.pdb_raw_store) for pdb_raw_store
    gattc_cache_manager.o(i.gccm_remote_db_store) refers to gattc_cache_manager.o(.data) for .data
    gattc_cache_manager.o(i.pdb_evt_handler) refers to gattc_cache_manager.o(.data) for .data
    gatts_cache_manager.o(i.gscm_init) refers to peer_database.o(i.pdb_register) for pdb_register
    gatts_cache_manager.o(i.gscm_init) refers to gatts_cache_manager.o(i.pdb_evt_handler) for pdb_evt_handler
    gatts_cache_manager.o(i.gscm_init) refers to gatts_cache_manager.o(.data) for .data
    gatts_cache_manager.o(i.gscm_local_database_has_changed) refers to peer_database.o(i.pdb_next_peer_id_get) for pdb_next_peer_id_get
    gatts_cache_manager.o(i.gscm_local_database_has_changed) refers to peer_database.o(i.pdb_raw_store) for pdb_raw_store
    gatts_cache_manager.o(i.gscm_local_database_has_changed) refers to gatts_cache_manager.o(.data) for .data
    gatts_cache_manager.o(i.gscm_local_database_has_changed) refers to gatts_cache_manager.o(.constdata) for .constdata
    gatts_cache_manager.o(i.gscm_local_db_cache_apply) refers to id_manager.o(i.im_peer_id_get_by_conn_handle) for im_peer_id_get_by_conn_handle
    gatts_cache_manager.o(i.gscm_local_db_cache_apply) refers to peer_database.o(i.pdb_read_buf_get) for pdb_read_buf_get
    gatts_cache_manager.o(i.gscm_local_db_cache_apply) refers to gatts_cache_manager.o(.data) for .data
    gatts_cache_manager.o(i.gscm_local_db_cache_get) refers to peer_database.o(i.pdb_raw_read) for pdb_raw_read
    gatts_cache_manager.o(i.gscm_local_db_cache_get) refers to gatts_cache_manager.o(.data) for .data
    gatts_cache_manager.o(i.gscm_local_db_cache_set) refers to peer_database.o(i.pdb_raw_store) for pdb_raw_store
    gatts_cache_manager.o(i.gscm_local_db_cache_set) refers to gatts_cache_manager.o(.data) for .data
    gatts_cache_manager.o(i.gscm_local_db_cache_update) refers to id_manager.o(i.im_peer_id_get_by_conn_handle) for im_peer_id_get_by_conn_handle
    gatts_cache_manager.o(i.gscm_local_db_cache_update) refers to peer_database.o(i.pdb_write_buf_get) for pdb_write_buf_get
    gatts_cache_manager.o(i.gscm_local_db_cache_update) refers to peer_database.o(i.pdb_write_buf_store) for pdb_write_buf_store
    gatts_cache_manager.o(i.gscm_local_db_cache_update) refers to peer_database.o(i.pdb_write_buf_release) for pdb_write_buf_release
    gatts_cache_manager.o(i.gscm_local_db_cache_update) refers to peer_database.o(i.pdb_clear) for pdb_clear
    gatts_cache_manager.o(i.gscm_local_db_cache_update) refers to gatts_cache_manager.o(.data) for .data
    gatts_cache_manager.o(i.gscm_peer_was_notified_of_db_change) refers to peer_database.o(i.pdb_raw_store) for pdb_raw_store
    gatts_cache_manager.o(i.gscm_peer_was_notified_of_db_change) refers to gatts_cache_manager.o(.data) for .data
    gatts_cache_manager.o(i.gscm_peer_was_notified_of_db_change) refers to gatts_cache_manager.o(.constdata) for .constdata
    gatts_cache_manager.o(i.gscm_service_changed_ind_needed) refers to id_manager.o(i.im_peer_id_get_by_conn_handle) for im_peer_id_get_by_conn_handle
    gatts_cache_manager.o(i.gscm_service_changed_ind_needed) refers to peer_database.o(i.pdb_read_buf_get) for pdb_read_buf_get
    gatts_cache_manager.o(i.gscm_service_changed_ind_send) refers to gatts_cache_manager.o(.data) for .data
    gatts_cache_manager.o(i.pdb_evt_handler) refers to peer_database.o(i.pdb_read_buf_get) for pdb_read_buf_get
    gatts_cache_manager.o(i.pdb_evt_handler) refers to gatts_cache_manager.o(.data) for .data
    gatts_cache_manager.o(.constdata) refers to gatts_cache_manager.o(.constdata) for service_changed_pending
    gatts_cache_manager.o(.constdata) refers to gatts_cache_manager.o(.constdata) for service_changed_pending
    id_manager.o(i.addr_compare) refers to memcmp.o(.text) for memcmp
    id_manager.o(i.ah) refers to memseta.o(.text) for __aeabi_memclr4
    id_manager.o(i.evt_send) refers to id_manager.o(.bss) for .bss
    id_manager.o(i.get_connection_by_conn_handle) refers to ble_conn_state.o(i.ble_conn_state_user_flag_get) for ble_conn_state_user_flag_get
    id_manager.o(i.get_connection_by_conn_handle) refers to id_manager.o(.bss) for .bss
    id_manager.o(i.get_free_connection) refers to ble_conn_state.o(i.ble_conn_state_user_flag_get) for ble_conn_state_user_flag_get
    id_manager.o(i.get_free_connection) refers to id_manager.o(.bss) for .bss
    id_manager.o(i.im_address_resolve) refers to memmovea.o(.text) for __aeabi_memcpy
    id_manager.o(i.im_address_resolve) refers to id_manager.o(i.ah) for ah
    id_manager.o(i.im_address_resolve) refers to memcmp.o(.text) for memcmp
    id_manager.o(i.im_ble_addr_get) refers to id_manager.o(i.get_connection_by_conn_handle) for get_connection_by_conn_handle
    id_manager.o(i.im_ble_addr_get) refers to memmovea.o(.text) for __aeabi_memcpy
    id_manager.o(i.im_ble_addr_get) refers to id_manager.o(.bss) for .bss
    id_manager.o(i.im_ble_evt_handler) refers to peer_database.o(i.pdb_read_buf_get) for pdb_read_buf_get
    id_manager.o(i.im_ble_evt_handler) refers to id_manager.o(i.addr_compare) for addr_compare
    id_manager.o(i.im_ble_evt_handler) refers to id_manager.o(i.im_address_resolve) for im_address_resolve
    id_manager.o(i.im_ble_evt_handler) refers to peer_database.o(i.pdb_next_peer_id_get) for pdb_next_peer_id_get
    id_manager.o(i.im_ble_evt_handler) refers to id_manager.o(i.new_connection) for new_connection
    id_manager.o(i.im_ble_evt_handler) refers to id_manager.o(i.im_new_peer_id) for im_new_peer_id
    id_manager.o(i.im_ble_evt_handler) refers to id_manager.o(i.evt_send) for evt_send
    id_manager.o(i.im_ble_evt_handler) refers to id_manager.o(.bss) for .bss
    id_manager.o(i.im_conn_handle_get) refers to id_manager.o(.bss) for .bss
    id_manager.o(i.im_new_peer_id) refers to id_manager.o(i.get_connection_by_conn_handle) for get_connection_by_conn_handle
    id_manager.o(i.im_new_peer_id) refers to id_manager.o(.bss) for .bss
    id_manager.o(i.im_peer_id_get_by_conn_handle) refers to id_manager.o(i.get_connection_by_conn_handle) for get_connection_by_conn_handle
    id_manager.o(i.im_peer_id_get_by_conn_handle) refers to id_manager.o(.bss) for .bss
    id_manager.o(i.im_peer_id_get_by_irk_match_idx) refers to id_manager.o(.bss) for .bss
    id_manager.o(i.im_peer_id_get_by_master_id) refers to peer_database.o(i.pdb_read_buf_get) for pdb_read_buf_get
    id_manager.o(i.im_peer_id_get_by_master_id) refers to id_manager.o(i.master_id_compare) for master_id_compare
    id_manager.o(i.im_peer_id_get_by_master_id) refers to peer_database.o(i.pdb_next_peer_id_get) for pdb_next_peer_id_get
    id_manager.o(i.im_register) refers to memseta.o(.text) for __aeabi_memclr4
    id_manager.o(i.im_register) refers to ble_conn_state.o(i.ble_conn_state_user_flag_acquire) for ble_conn_state_user_flag_acquire
    id_manager.o(i.im_register) refers to peer_database.o(i.pdb_register) for pdb_register
    id_manager.o(i.im_register) refers to id_manager.o(.bss) for .bss
    id_manager.o(i.im_register) refers to id_manager.o(i.pdb_evt_handler) for pdb_evt_handler
    id_manager.o(i.im_wlist_create) refers to ble_conn_state.o(i.ble_conn_state_user_flag_get) for ble_conn_state_user_flag_get
    id_manager.o(i.im_wlist_create) refers to peer_database.o(i.pdb_read_buf_get) for pdb_read_buf_get
    id_manager.o(i.im_wlist_create) refers to memmovea.o(.text) for __aeabi_memcpy
    id_manager.o(i.im_wlist_create) refers to id_manager.o(i.is_valid_irk) for is_valid_irk
    id_manager.o(i.im_wlist_create) refers to id_manager.o(.bss) for .bss
    id_manager.o(i.im_wlist_set) refers to peer_database.o(i.pdb_read_buf_get) for pdb_read_buf_get
    id_manager.o(i.im_wlist_set) refers to id_manager.o(i.is_valid_irk) for is_valid_irk
    id_manager.o(i.im_wlist_set) refers to memcmp.o(.text) for memcmp
    id_manager.o(i.im_wlist_set) refers to peer_database.o(i.pdb_next_peer_id_get) for pdb_next_peer_id_get
    id_manager.o(i.im_wlist_set) refers to id_manager.o(.bss) for .bss
    id_manager.o(i.is_duplicate_bonding_data) refers to id_manager.o(i.is_valid_irk) for is_valid_irk
    id_manager.o(i.is_duplicate_bonding_data) refers to memcmp.o(.text) for memcmp
    id_manager.o(i.is_duplicate_bonding_data) refers to id_manager.o(i.addr_compare) for addr_compare
    id_manager.o(i.master_id_compare) refers to id_manager.o(i.im_master_id_is_valid) for im_master_id_is_valid
    id_manager.o(i.master_id_compare) refers to memcmp.o(.text) for memcmp
    id_manager.o(i.new_connection) refers to ble_conn_state.o(i.ble_conn_state_user_flag_set) for ble_conn_state_user_flag_set
    id_manager.o(i.new_connection) refers to id_manager.o(i.get_connection_by_conn_handle) for get_connection_by_conn_handle
    id_manager.o(i.new_connection) refers to id_manager.o(i.get_free_connection) for get_free_connection
    id_manager.o(i.new_connection) refers to memmovea.o(.text) for __aeabi_memcpy
    id_manager.o(i.new_connection) refers to id_manager.o(.bss) for .bss
    id_manager.o(i.pdb_evt_handler) refers to peer_database.o(i.pdb_read_buf_get) for pdb_read_buf_get
    id_manager.o(i.pdb_evt_handler) refers to id_manager.o(i.is_duplicate_bonding_data) for is_duplicate_bonding_data
    id_manager.o(i.pdb_evt_handler) refers to id_manager.o(i.im_conn_handle_get) for im_conn_handle_get
    id_manager.o(i.pdb_evt_handler) refers to id_manager.o(i.evt_send) for evt_send
    id_manager.o(i.pdb_evt_handler) refers to peer_database.o(i.pdb_next_peer_id_get) for pdb_next_peer_id_get
    peer_data.o(i.peer_data_deserialize) refers to main.o(i.__ARM_common_switch8) for __ARM_common_switch8
    peer_data.o(i.peer_data_deserialize) refers to memmovea.o(.text) for __aeabi_memcpy
    peer_data.o(i.peer_data_parts_get) refers to main.o(i.__ARM_common_switch8) for __ARM_common_switch8
    peer_data_storage.o(i.fds_evt_handler) refers to main.o(i.__ARM_common_switch8) for __ARM_common_switch8
    peer_data_storage.o(i.fds_evt_handler) refers to peer_data_storage.o(i.convert_type_id_to_peer_data_id) for convert_type_id_to_peer_data_id
    peer_data_storage.o(i.fds_evt_handler) refers to peer_id.o(i.peer_id_free) for peer_id_free
    peer_data_storage.o(i.fds_evt_handler) refers to peer_data_storage.o(.bss) for .bss
    peer_data_storage.o(i.pds_n_peers) refers to peer_data_storage.o(i.peer_ids_init) for peer_ids_init
    peer_data_storage.o(i.pds_n_peers) refers to peer_id.o(i.peer_id_n_ids) for peer_id_n_ids
    peer_data_storage.o(i.pds_n_peers) refers to peer_data_storage.o(.bss) for .bss
    peer_data_storage.o(i.pds_next_peer_id_get) refers to peer_data_storage.o(i.peer_ids_init) for peer_ids_init
    peer_data_storage.o(i.pds_next_peer_id_get) refers to peer_id.o(i.peer_id_next_id_get) for peer_id_next_id_get
    peer_data_storage.o(i.pds_next_peer_id_get) refers to peer_data_storage.o(.bss) for .bss
    peer_data_storage.o(i.pds_peer_data_clear) refers to peer_data_storage.o(i.PM_PEER_DATA_ID_IS_VALID) for PM_PEER_DATA_ID_IS_VALID
    peer_data_storage.o(i.pds_peer_data_clear) refers to fds.o(i.fds_find) for fds_find
    peer_data_storage.o(i.pds_peer_data_clear) refers to fds.o(i.fds_clear) for fds_clear
    peer_data_storage.o(i.pds_peer_data_clear) refers to peer_data_storage.o(.bss) for .bss
    peer_data_storage.o(i.pds_peer_data_lock) refers to peer_data_storage.o(.bss) for .bss
    peer_data_storage.o(i.pds_peer_data_read) refers to peer_data_storage.o(i.PM_PEER_DATA_ID_IS_VALID) for PM_PEER_DATA_ID_IS_VALID
    peer_data_storage.o(i.pds_peer_data_read) refers to peer_data_storage.o(i.pds_peer_data_read_ptr_get) for pds_peer_data_read_ptr_get
    peer_data_storage.o(i.pds_peer_data_read) refers to peer_data.o(i.peer_data_deserialize) for peer_data_deserialize
    peer_data_storage.o(i.pds_peer_data_read_ptr_get) refers to peer_data_storage.o(i.PM_PEER_DATA_ID_IS_VALID) for PM_PEER_DATA_ID_IS_VALID
    peer_data_storage.o(i.pds_peer_data_read_ptr_get) refers to fds.o(i.fds_find) for fds_find
    peer_data_storage.o(i.pds_peer_data_read_ptr_get) refers to fds.o(i.fds_open) for fds_open
    peer_data_storage.o(i.pds_peer_data_read_ptr_get) refers to fds.o(i.fds_close) for fds_close
    peer_data_storage.o(i.pds_peer_data_read_ptr_get) refers to peer_data_storage.o(.bss) for .bss
    peer_data_storage.o(i.pds_peer_data_update) refers to peer_data_storage.o(i.PM_PEER_DATA_ID_IS_VALID) for PM_PEER_DATA_ID_IS_VALID
    peer_data_storage.o(i.pds_peer_data_update) refers to peer_data_storage.o(i.convert_peer_data_id_to_type_id) for convert_peer_data_id_to_type_id
    peer_data_storage.o(i.pds_peer_data_update) refers to peer_data_storage.o(i.convert_peer_id_to_instance_id) for convert_peer_id_to_instance_id
    peer_data_storage.o(i.pds_peer_data_update) refers to peer_data.o(i.peer_data_parts_get) for peer_data_parts_get
    peer_data_storage.o(i.pds_peer_data_update) refers to fds.o(i.fds_descriptor_from_rec_id) for fds_descriptor_from_rec_id
    peer_data_storage.o(i.pds_peer_data_update) refers to fds.o(i.fds_update) for fds_update
    peer_data_storage.o(i.pds_peer_data_update) refers to main.o(i.__ARM_common_switch8) for __ARM_common_switch8
    peer_data_storage.o(i.pds_peer_data_update) refers to fds.o(i.fds_record_id_from_desc) for fds_record_id_from_desc
    peer_data_storage.o(i.pds_peer_data_update) refers to peer_data_storage.o(.bss) for .bss
    peer_data_storage.o(i.pds_peer_data_verify) refers to peer_data_storage.o(.bss) for .bss
    peer_data_storage.o(i.pds_peer_data_write) refers to peer_data_storage.o(i.PM_PEER_DATA_ID_IS_VALID) for PM_PEER_DATA_ID_IS_VALID
    peer_data_storage.o(i.pds_peer_data_write) refers to peer_data_storage.o(i.convert_peer_data_id_to_type_id) for convert_peer_data_id_to_type_id
    peer_data_storage.o(i.pds_peer_data_write) refers to peer_data_storage.o(i.convert_peer_id_to_instance_id) for convert_peer_id_to_instance_id
    peer_data_storage.o(i.pds_peer_data_write) refers to peer_data.o(i.peer_data_parts_get) for peer_data_parts_get
    peer_data_storage.o(i.pds_peer_data_write) refers to fds.o(i.fds_write) for fds_write
    peer_data_storage.o(i.pds_peer_data_write) refers to fds.o(i.fds_record_id_from_desc) for fds_record_id_from_desc
    peer_data_storage.o(i.pds_peer_data_write) refers to peer_data_storage.o(.bss) for .bss
    peer_data_storage.o(i.pds_peer_data_write_prepare) refers to peer_data_storage.o(i.PM_PEER_DATA_ID_IS_VALID) for PM_PEER_DATA_ID_IS_VALID
    peer_data_storage.o(i.pds_peer_data_write_prepare) refers to fds.o(i.fds_reserve) for fds_reserve
    peer_data_storage.o(i.pds_peer_data_write_prepare) refers to peer_data_storage.o(.bss) for .bss
    peer_data_storage.o(i.pds_peer_data_write_prepare_cancel) refers to fds.o(i.fds_reserve_cancel) for fds_reserve_cancel
    peer_data_storage.o(i.pds_peer_data_write_prepare_cancel) refers to peer_data_storage.o(.bss) for .bss
    peer_data_storage.o(i.pds_peer_data_write_prepared) refers to peer_data_storage.o(i.PM_PEER_DATA_ID_IS_VALID) for PM_PEER_DATA_ID_IS_VALID
    peer_data_storage.o(i.pds_peer_data_write_prepared) refers to peer_data_storage.o(i.convert_peer_data_id_to_type_id) for convert_peer_data_id_to_type_id
    peer_data_storage.o(i.pds_peer_data_write_prepared) refers to peer_data_storage.o(i.convert_peer_id_to_instance_id) for convert_peer_id_to_instance_id
    peer_data_storage.o(i.pds_peer_data_write_prepared) refers to peer_data.o(i.peer_data_parts_get) for peer_data_parts_get
    peer_data_storage.o(i.pds_peer_data_write_prepared) refers to fds.o(i.fds_write_reserved) for fds_write_reserved
    peer_data_storage.o(i.pds_peer_data_write_prepared) refers to fds.o(i.fds_record_id_from_desc) for fds_record_id_from_desc
    peer_data_storage.o(i.pds_peer_data_write_prepared) refers to peer_data_storage.o(.bss) for .bss
    peer_data_storage.o(i.pds_peer_id_allocate) refers to peer_data_storage.o(i.peer_ids_init) for peer_ids_init
    peer_data_storage.o(i.pds_peer_id_allocate) refers to peer_id.o(i.peer_id_allocate) for peer_id_allocate
    peer_data_storage.o(i.pds_peer_id_allocate) refers to peer_data_storage.o(.bss) for .bss
    peer_data_storage.o(i.pds_peer_id_free) refers to peer_data_storage.o(i.peer_ids_init) for peer_ids_init
    peer_data_storage.o(i.pds_peer_id_free) refers to fds.o(i.fds_clear_by_instance) for fds_clear_by_instance
    peer_data_storage.o(i.pds_peer_id_free) refers to peer_data_storage.o(.bss) for .bss
    peer_data_storage.o(i.pds_peer_id_is_allocated) refers to peer_data_storage.o(i.peer_ids_init) for peer_ids_init
    peer_data_storage.o(i.pds_peer_id_is_allocated) refers to peer_id.o(i.peer_id_is_allocated) for peer_id_is_allocated
    peer_data_storage.o(i.pds_peer_id_is_allocated) refers to peer_data_storage.o(.bss) for .bss
    peer_data_storage.o(i.pds_register) refers to memseta.o(.text) for __aeabi_memclr4
    peer_data_storage.o(i.pds_register) refers to peer_id.o(i.peer_id_init) for peer_id_init
    peer_data_storage.o(i.pds_register) refers to fds.o(i.fds_register) for fds_register
    peer_data_storage.o(i.pds_register) refers to fds.o(i.fds_init) for fds_init
    peer_data_storage.o(i.pds_register) refers to peer_data_storage.o(.bss) for .bss
    peer_data_storage.o(i.pds_register) refers to peer_data_storage.o(i.fds_evt_handler) for fds_evt_handler
    peer_data_storage.o(i.peer_ids_init) refers to fds.o(i.fds_find_by_type) for fds_find_by_type
    peer_data_storage.o(i.peer_ids_init) refers to fds.o(i.fds_open) for fds_open
    peer_data_storage.o(i.peer_ids_init) refers to fds.o(i.fds_close) for fds_close
    peer_data_storage.o(i.peer_ids_init) refers to peer_id.o(i.peer_id_allocate) for peer_id_allocate
    peer_data_storage.o(i.peer_ids_init) refers to peer_data_storage.o(.bss) for .bss
    peer_database.o(i.pdb_clear) refers to peer_data_storage.o(i.pds_peer_data_clear) for pds_peer_data_clear
    peer_database.o(i.pdb_clear) refers to peer_database.o(.bss) for .bss
    peer_database.o(i.pdb_evt_send) refers to peer_database.o(.bss) for .bss
    peer_database.o(i.pdb_n_peers) refers to peer_data_storage.o(i.pds_n_peers) for pds_n_peers
    peer_database.o(i.pdb_n_peers) refers to peer_database.o(.bss) for .bss
    peer_database.o(i.pdb_next_peer_id_get) refers to peer_data_storage.o(i.pds_next_peer_id_get) for pds_next_peer_id_get
    peer_database.o(i.pdb_next_peer_id_get) refers to peer_database.o(.bss) for .bss
    peer_database.o(i.pdb_peer_allocate) refers to peer_data_storage.o(i.pds_peer_id_allocate) for pds_peer_id_allocate
    peer_database.o(i.pdb_peer_allocate) refers to peer_database.o(.bss) for .bss
    peer_database.o(i.pdb_peer_free) refers to peer_data_storage.o(i.pds_peer_id_free) for pds_peer_id_free
    peer_database.o(i.pdb_peer_free) refers to peer_database.o(.bss) for .bss
    peer_database.o(i.pdb_raw_read) refers to peer_data_storage.o(i.pds_peer_data_read) for pds_peer_data_read
    peer_database.o(i.pdb_raw_read) refers to peer_database.o(.bss) for .bss
    peer_database.o(i.pdb_raw_store) refers to peer_database.o(i.write_or_update) for write_or_update
    peer_database.o(i.pdb_raw_store) refers to peer_database.o(.bss) for .bss
    peer_database.o(i.pdb_read_buf_get) refers to peer_data_storage.o(i.pds_peer_data_read_ptr_get) for pds_peer_data_read_ptr_get
    peer_database.o(i.pdb_read_buf_get) refers to peer_database.o(.bss) for .bss
    peer_database.o(i.pdb_register) refers to memseta.o(.text) for __aeabi_memclr4
    peer_database.o(i.pdb_register) refers to peer_database.o(i.write_buffer_record_invalidate) for write_buffer_record_invalidate
    peer_database.o(i.pdb_register) refers to peer_data_storage.o(i.pds_register) for pds_register
    peer_database.o(i.pdb_register) refers to pm_buffer.o(i.pm_buffer_init) for pm_buffer_init
    peer_database.o(i.pdb_register) refers to peer_database.o(.bss) for .bss
    peer_database.o(i.pdb_register) refers to peer_database.o(i.pds_evt_handler) for pds_evt_handler
    peer_database.o(i.pdb_register) refers to peer_database.o(.data) for .data
    peer_database.o(i.pdb_write_buf_get) refers to peer_data_storage.o(i.pds_peer_id_is_allocated) for pds_peer_id_is_allocated
    peer_database.o(i.pdb_write_buf_get) refers to peer_database.o(i.write_buffer_record_find) for write_buffer_record_find
    peer_database.o(i.pdb_write_buf_get) refers to pm_buffer.o(i.pm_buffer_release) for pm_buffer_release
    peer_database.o(i.pdb_write_buf_get) refers to peer_database.o(i.write_buffer_record_invalidate) for write_buffer_record_invalidate
    peer_database.o(i.pdb_write_buf_get) refers to pm_buffer.o(i.pm_buffer_block_acquire) for pm_buffer_block_acquire
    peer_database.o(i.pdb_write_buf_get) refers to pm_buffer.o(i.pm_buffer_ptr_get) for pm_buffer_ptr_get
    peer_database.o(i.pdb_write_buf_get) refers to peer_database.o(i.peer_data_point_to_buffer) for peer_data_point_to_buffer
    peer_database.o(i.pdb_write_buf_get) refers to main.o(i.__ARM_common_switch8) for __ARM_common_switch8
    peer_database.o(i.pdb_write_buf_get) refers to uidiv.o(.text) for __aeabi_uidivmod
    peer_database.o(i.pdb_write_buf_get) refers to peer_database.o(.bss) for .bss
    peer_database.o(i.pdb_write_buf_release) refers to peer_database.o(i.write_buffer_record_find) for write_buffer_record_find
    peer_database.o(i.pdb_write_buf_release) refers to peer_data_storage.o(i.pds_peer_data_write_prepare_cancel) for pds_peer_data_write_prepare_cancel
    peer_database.o(i.pdb_write_buf_release) refers to peer_database.o(i.write_buffer_record_release) for write_buffer_record_release
    peer_database.o(i.pdb_write_buf_release) refers to peer_database.o(.bss) for .bss
    peer_database.o(i.pdb_write_buf_store) refers to peer_database.o(i.write_buffer_record_find) for write_buffer_record_find
    peer_database.o(i.pdb_write_buf_store) refers to pm_buffer.o(i.pm_buffer_ptr_get) for pm_buffer_ptr_get
    peer_database.o(i.pdb_write_buf_store) refers to peer_database.o(i.peer_data_const_point_to_buffer) for peer_data_const_point_to_buffer
    peer_database.o(i.pdb_write_buf_store) refers to main.o(i.__ARM_common_switch8) for __ARM_common_switch8
    peer_database.o(i.pdb_write_buf_store) refers to peer_database.o(i.write_or_update) for write_or_update
    peer_database.o(i.pdb_write_buf_store) refers to peer_database.o(i.PM_REMOTE_DB_N_WORDS) for PM_REMOTE_DB_N_WORDS
    peer_database.o(i.pdb_write_buf_store) refers to peer_database.o(.bss) for .bss
    peer_database.o(i.pdb_write_buf_store_prepare) refers to peer_database.o(i.write_buffer_record_find) for write_buffer_record_find
    peer_database.o(i.pdb_write_buf_store_prepare) refers to pm_buffer.o(i.pm_buffer_ptr_get) for pm_buffer_ptr_get
    peer_database.o(i.pdb_write_buf_store_prepare) refers to peer_database.o(i.peer_data_const_point_to_buffer) for peer_data_const_point_to_buffer
    peer_database.o(i.pdb_write_buf_store_prepare) refers to peer_data_storage.o(i.pds_peer_data_write_prepare) for pds_peer_data_write_prepare
    peer_database.o(i.pdb_write_buf_store_prepare) refers to peer_database.o(.bss) for .bss
    peer_database.o(i.pds_evt_handler) refers to peer_database.o(i.write_buffer_record_find) for write_buffer_record_find
    peer_database.o(i.pds_evt_handler) refers to main.o(i.__ARM_common_switch8) for __ARM_common_switch8
    peer_database.o(i.pds_evt_handler) refers to peer_database.o(i.write_buffer_record_release) for write_buffer_record_release
    peer_database.o(i.pds_evt_handler) refers to peer_database.o(i.pdb_evt_send) for pdb_evt_send
    peer_database.o(i.pds_evt_handler) refers to peer_database.o(i.pdb_write_buf_store) for pdb_write_buf_store
    peer_database.o(i.pds_evt_handler) refers to peer_database.o(.bss) for .bss
    peer_database.o(i.peer_data_const_point_to_buffer) refers to peer_database.o(i.peer_data_point_to_buffer) for peer_data_point_to_buffer
    peer_database.o(i.peer_data_point_to_buffer) refers to main.o(i.__ARM_common_switch8) for __ARM_common_switch8
    peer_database.o(i.peer_data_point_to_buffer) refers to uidiv.o(.text) for __aeabi_uidivmod
    peer_database.o(i.peer_data_point_to_buffer) refers to peer_database.o(i.PM_REMOTE_DB_N_WORDS) for PM_REMOTE_DB_N_WORDS
    peer_database.o(i.write_buffer_record_find) refers to peer_database.o(.bss) for .bss
    peer_database.o(i.write_buffer_record_release) refers to pm_buffer.o(i.pm_buffer_release) for pm_buffer_release
    peer_database.o(i.write_buffer_record_release) refers to peer_database.o(i.write_buffer_record_invalidate) for write_buffer_record_invalidate
    peer_database.o(i.write_buffer_record_release) refers to peer_database.o(.bss) for .bss
    peer_database.o(i.write_or_update) refers to peer_data_storage.o(i.pds_peer_data_read_ptr_get) for pds_peer_data_read_ptr_get
    peer_database.o(i.write_or_update) refers to peer_data_storage.o(i.pds_peer_data_write_prepared) for pds_peer_data_write_prepared
    peer_database.o(i.write_or_update) refers to peer_data_storage.o(i.pds_peer_data_write_prepare_cancel) for pds_peer_data_write_prepare_cancel
    peer_database.o(i.write_or_update) refers to peer_data_storage.o(i.pds_peer_data_update) for pds_peer_data_update
    peer_database.o(i.write_or_update) refers to peer_data_storage.o(i.pds_peer_data_write) for pds_peer_data_write
    peer_id.o(i.peer_id_allocate) refers to pm_mutex.o(i.pm_mutex_lock_first_available) for pm_mutex_lock_first_available
    peer_id.o(i.peer_id_allocate) refers to pm_mutex.o(i.pm_mutex_lock) for pm_mutex_lock
    peer_id.o(i.peer_id_allocate) refers to peer_id.o(.bss) for .bss
    peer_id.o(i.peer_id_free) refers to pm_mutex.o(i.pm_mutex_unlock) for pm_mutex_unlock
    peer_id.o(i.peer_id_free) refers to peer_id.o(.bss) for .bss
    peer_id.o(i.peer_id_init) refers to memseta.o(.text) for __aeabi_memclr
    peer_id.o(i.peer_id_init) refers to pm_mutex.o(i.pm_mutex_init) for pm_mutex_init
    peer_id.o(i.peer_id_init) refers to peer_id.o(.bss) for .bss
    peer_id.o(i.peer_id_is_allocated) refers to pm_mutex.o(i.pm_mutex_lock_status_get) for pm_mutex_lock_status_get
    peer_id.o(i.peer_id_is_allocated) refers to peer_id.o(.bss) for .bss
    peer_id.o(i.peer_id_n_ids) refers to pm_mutex.o(i.pm_mutex_lock_status_get) for pm_mutex_lock_status_get
    peer_id.o(i.peer_id_n_ids) refers to peer_id.o(.bss) for .bss
    peer_id.o(i.peer_id_next_id_get) refers to pm_mutex.o(i.pm_mutex_lock_status_get) for pm_mutex_lock_status_get
    peer_id.o(i.peer_id_next_id_get) refers to peer_id.o(.bss) for .bss
    peer_manager.o(i.evt_send) refers to peer_manager.o(.bss) for .bss
    peer_manager.o(i.gcm_evt_handler) refers to id_manager.o(i.im_conn_handle_get) for im_conn_handle_get
    peer_manager.o(i.gcm_evt_handler) refers to main.o(i.__ARM_common_switch8) for __ARM_common_switch8
    peer_manager.o(i.gcm_evt_handler) refers to peer_manager.o(i.evt_send) for evt_send
    peer_manager.o(i.im_evt_handler) refers to ble_conn_state.o(i.ble_conn_state_user_flag_set) for ble_conn_state_user_flag_set
    peer_manager.o(i.im_evt_handler) refers to id_manager.o(i.im_peer_id_get_by_conn_handle) for im_peer_id_get_by_conn_handle
    peer_manager.o(i.im_evt_handler) refers to peer_manager.o(i.evt_send) for evt_send
    peer_manager.o(i.im_evt_handler) refers to peer_database.o(i.pdb_peer_free) for pdb_peer_free
    peer_manager.o(i.im_evt_handler) refers to peer_manager.o(.bss) for .bss
    peer_manager.o(i.pdb_evt_handler) refers to id_manager.o(i.im_conn_handle_get) for im_conn_handle_get
    peer_manager.o(i.pdb_evt_handler) refers to main.o(i.__ARM_common_switch8) for __ARM_common_switch8
    peer_manager.o(i.pdb_evt_handler) refers to peer_manager.o(i.evt_send) for evt_send
    peer_manager.o(i.pm_ble_evt_handler) refers to id_manager.o(i.im_ble_evt_handler) for im_ble_evt_handler
    peer_manager.o(i.pm_ble_evt_handler) refers to security_manager.o(i.sm_ble_evt_handler) for sm_ble_evt_handler
    peer_manager.o(i.pm_ble_evt_handler) refers to gatt_cache_manager.o(i.gcm_ble_evt_handler) for gcm_ble_evt_handler
    peer_manager.o(i.pm_ble_evt_handler) refers to peer_manager.o(.bss) for .bss
    peer_manager.o(i.pm_conn_handle_get) refers to id_manager.o(i.im_conn_handle_get) for im_conn_handle_get
    peer_manager.o(i.pm_init) refers to peer_database.o(i.pdb_register) for pdb_register
    peer_manager.o(i.pm_init) refers to security_manager.o(i.sm_register) for sm_register
    peer_manager.o(i.pm_init) refers to gatt_cache_manager.o(i.gcm_init) for gcm_init
    peer_manager.o(i.pm_init) refers to id_manager.o(i.im_register) for im_register
    peer_manager.o(i.pm_init) refers to ble_conn_state.o(i.ble_conn_state_user_flag_acquire) for ble_conn_state_user_flag_acquire
    peer_manager.o(i.pm_init) refers to peer_manager.o(i.pdb_evt_handler) for pdb_evt_handler
    peer_manager.o(i.pm_init) refers to peer_manager.o(i.sm_evt_handler) for sm_evt_handler
    peer_manager.o(i.pm_init) refers to peer_manager.o(i.gcm_evt_handler) for gcm_evt_handler
    peer_manager.o(i.pm_init) refers to peer_manager.o(i.im_evt_handler) for im_evt_handler
    peer_manager.o(i.pm_init) refers to peer_manager.o(.bss) for .bss
    peer_manager.o(i.pm_link_secure) refers to security_manager.o(i.sm_link_secure) for sm_link_secure
    peer_manager.o(i.pm_link_secure) refers to peer_manager.o(.bss) for .bss
    peer_manager.o(i.pm_link_status_get) refers to ble_conn_state.o(i.ble_conn_state_user_flag_get) for ble_conn_state_user_flag_get
    peer_manager.o(i.pm_link_status_get) refers to ble_conn_state.o(i.ble_conn_state_valid) for ble_conn_state_valid
    peer_manager.o(i.pm_link_status_get) refers to ble_conn_state.o(i.ble_conn_state_encrypted) for ble_conn_state_encrypted
    peer_manager.o(i.pm_link_status_get) refers to ble_conn_state.o(i.ble_conn_state_mitm_protected) for ble_conn_state_mitm_protected
    peer_manager.o(i.pm_link_status_get) refers to peer_manager.o(.bss) for .bss
    peer_manager.o(i.pm_local_database_has_changed) refers to gatt_cache_manager.o(i.gcm_local_database_has_changed) for gcm_local_database_has_changed
    peer_manager.o(i.pm_n_peers) refers to peer_database.o(i.pdb_n_peers) for pdb_n_peers
    peer_manager.o(i.pm_next_peer_id_get) refers to peer_database.o(i.pdb_next_peer_id_get) for pdb_next_peer_id_get
    peer_manager.o(i.pm_peer_data_clear) refers to peer_database.o(i.pdb_clear) for pdb_clear
    peer_manager.o(i.pm_peer_data_clear) refers to peer_manager.o(.bss) for .bss
    peer_manager.o(i.pm_peer_data_get) refers to peer_database.o(i.pdb_raw_read) for pdb_raw_read
    peer_manager.o(i.pm_peer_data_store) refers to peer_database.o(i.pdb_raw_store) for pdb_raw_store
    peer_manager.o(i.pm_peer_delete) refers to peer_database.o(i.pdb_peer_free) for pdb_peer_free
    peer_manager.o(i.pm_peer_delete_all) refers to peer_database.o(i.pdb_next_peer_id_get) for pdb_next_peer_id_get
    peer_manager.o(i.pm_peer_delete_all) refers to peer_database.o(i.pdb_peer_free) for pdb_peer_free
    peer_manager.o(i.pm_peer_id_get) refers to id_manager.o(i.im_peer_id_get_by_conn_handle) for im_peer_id_get_by_conn_handle
    peer_manager.o(i.pm_peer_new) refers to peer_database.o(i.pdb_peer_allocate) for pdb_peer_allocate
    peer_manager.o(i.pm_peer_new) refers to peer_database.o(i.pdb_raw_store) for pdb_raw_store
    peer_manager.o(i.pm_peer_new) refers to peer_manager.o(.bss) for .bss
    peer_manager.o(i.pm_register) refers to peer_manager.o(.bss) for .bss
    peer_manager.o(i.pm_sec_params_set) refers to security_manager.o(i.sm_sec_params_set) for sm_sec_params_set
    peer_manager.o(i.pm_sec_params_set) refers to peer_manager.o(.bss) for .bss
    peer_manager.o(i.pm_wlist_create) refers to id_manager.o(i.im_wlist_create) for im_wlist_create
    peer_manager.o(i.pm_wlist_set) refers to id_manager.o(i.im_wlist_set) for im_wlist_set
    peer_manager.o(i.sm_evt_handler) refers to main.o(i.__ARM_common_switch8) for __ARM_common_switch8
    peer_manager.o(i.sm_evt_handler) refers to ble_conn_state.o(i.ble_conn_state_user_flag_set) for ble_conn_state_user_flag_set
    peer_manager.o(i.sm_evt_handler) refers to ble_conn_state.o(i.ble_conn_state_user_flag_get) for ble_conn_state_user_flag_get
    peer_manager.o(i.sm_evt_handler) refers to id_manager.o(i.im_peer_id_get_by_conn_handle) for im_peer_id_get_by_conn_handle
    peer_manager.o(i.sm_evt_handler) refers to peer_manager.o(i.evt_send) for evt_send
    peer_manager.o(i.sm_evt_handler) refers to peer_manager.o(.bss) for .bss
    pm_buffer.o(i.pm_buffer_block_acquire) refers to pm_mutex.o(i.pm_mutex_lock) for pm_mutex_lock
    pm_buffer.o(i.pm_buffer_block_acquire) refers to pm_buffer.o(i.pm_buffer_release) for pm_buffer_release
    pm_buffer.o(i.pm_buffer_init) refers to pm_mutex.o(i.pm_mutex_init) for pm_mutex_init
    pm_buffer.o(i.pm_buffer_ptr_get) refers to pm_mutex.o(i.pm_mutex_lock_status_get) for pm_mutex_lock_status_get
    pm_buffer.o(i.pm_buffer_release) refers to pm_mutex.o(i.pm_mutex_lock_status_get) for pm_mutex_lock_status_get
    pm_buffer.o(i.pm_buffer_release) refers to pm_mutex.o(i.pm_mutex_unlock) for pm_mutex_unlock
    pm_mutex.o(i.lock_by_mask) refers to pm_mutex.o(i.current_int_priority_get) for current_int_priority_get
    pm_mutex.o(i.lock_by_mask) refers to app_error.o(i.app_error_handler_bare) for app_error_handler_bare
    pm_mutex.o(i.pm_mutex_init) refers to memseta.o(.text) for __aeabi_memclr
    pm_mutex.o(i.pm_mutex_lock) refers to pm_mutex.o(i.lock_by_mask) for lock_by_mask
    pm_mutex.o(i.pm_mutex_lock_first_available) refers to pm_mutex.o(i.lock_by_mask) for lock_by_mask
    pm_mutex.o(i.pm_mutex_unlock) refers to pm_mutex.o(i.current_int_priority_get) for current_int_priority_get
    pm_mutex.o(i.pm_mutex_unlock) refers to app_error.o(i.app_error_handler_bare) for app_error_handler_bare
    security_dispatcher.o(i.auth_status_success_process) refers to ble_conn_state.o(i.ble_conn_state_role) for ble_conn_state_role
    security_dispatcher.o(i.auth_status_success_process) refers to id_manager.o(i.im_peer_id_get_by_conn_handle) for im_peer_id_get_by_conn_handle
    security_dispatcher.o(i.auth_status_success_process) refers to ble_conn_state.o(i.ble_conn_state_user_flag_set) for ble_conn_state_user_flag_set
    security_dispatcher.o(i.auth_status_success_process) refers to peer_database.o(i.pdb_write_buf_store) for pdb_write_buf_store
    security_dispatcher.o(i.auth_status_success_process) refers to security_dispatcher.o(i.evt_send) for evt_send
    security_dispatcher.o(i.auth_status_success_process) refers to security_dispatcher.o(.data) for .data
    security_dispatcher.o(i.auth_status_success_process) refers to security_dispatcher.o(.constdata) for .constdata
    security_dispatcher.o(i.disconnect_process) refers to id_manager.o(i.im_peer_id_get_by_conn_handle) for im_peer_id_get_by_conn_handle
    security_dispatcher.o(i.disconnect_process) refers to ble_conn_state.o(i.ble_conn_state_user_flag_get) for ble_conn_state_user_flag_get
    security_dispatcher.o(i.disconnect_process) refers to security_dispatcher.o(i.pairing_failure) for pairing_failure
    security_dispatcher.o(i.disconnect_process) refers to security_dispatcher.o(i.encryption_failure) for encryption_failure
    security_dispatcher.o(i.disconnect_process) refers to security_dispatcher.o(.data) for .data
    security_dispatcher.o(i.encryption_failure) refers to ble_conn_state.o(i.ble_conn_state_user_flag_set) for ble_conn_state_user_flag_set
    security_dispatcher.o(i.encryption_failure) refers to security_dispatcher.o(i.evt_send) for evt_send
    security_dispatcher.o(i.encryption_failure) refers to security_dispatcher.o(.constdata) for .constdata
    security_dispatcher.o(i.encryption_failure) refers to security_dispatcher.o(.data) for .data
    security_dispatcher.o(i.evt_send) refers to security_dispatcher.o(.data) for .data
    security_dispatcher.o(i.flag_id_init) refers to ble_conn_state.o(i.ble_conn_state_user_flag_acquire) for ble_conn_state_user_flag_acquire
    security_dispatcher.o(i.link_secure_central) refers to id_manager.o(i.im_peer_id_get_by_conn_handle) for im_peer_id_get_by_conn_handle
    security_dispatcher.o(i.link_secure_central) refers to security_dispatcher.o(i.link_secure_central_existing_peer) for link_secure_central_existing_peer
    security_dispatcher.o(i.link_secure_central) refers to security_dispatcher.o(i.link_secure_central_new_peer) for link_secure_central_new_peer
    security_dispatcher.o(i.link_secure_central) refers to security_dispatcher.o(i.sec_proc_start) for sec_proc_start
    security_dispatcher.o(i.link_secure_central) refers to security_dispatcher.o(i.sec_start_send) for sec_start_send
    security_dispatcher.o(i.link_secure_central_existing_peer) refers to peer_database.o(i.pdb_read_buf_get) for pdb_read_buf_get
    security_dispatcher.o(i.link_secure_central_existing_peer) refers to id_manager.o(i.im_master_id_is_valid) for im_master_id_is_valid
    security_dispatcher.o(i.link_secure_central_existing_peer) refers to peer_database.o(i.pdb_write_buf_get) for pdb_write_buf_get
    security_dispatcher.o(i.link_secure_central_existing_peer) refers to peer_database.o(i.pdb_write_buf_store_prepare) for pdb_write_buf_store_prepare
    security_dispatcher.o(i.link_secure_central_existing_peer) refers to peer_database.o(i.pdb_write_buf_release) for pdb_write_buf_release
    security_dispatcher.o(i.link_secure_central_existing_peer) refers to security_dispatcher.o(i.sec_proc_start) for sec_proc_start
    security_dispatcher.o(i.link_secure_central_new_peer) refers to peer_database.o(i.pdb_peer_allocate) for pdb_peer_allocate
    security_dispatcher.o(i.link_secure_central_new_peer) refers to peer_database.o(i.pdb_write_buf_get) for pdb_write_buf_get
    security_dispatcher.o(i.link_secure_central_new_peer) refers to peer_database.o(i.pdb_write_buf_store_prepare) for pdb_write_buf_store_prepare
    security_dispatcher.o(i.link_secure_central_new_peer) refers to peer_database.o(i.pdb_write_buf_release) for pdb_write_buf_release
    security_dispatcher.o(i.link_secure_central_new_peer) refers to security_dispatcher.o(i.sec_proc_start) for sec_proc_start
    security_dispatcher.o(i.pairing_failure) refers to ble_conn_state.o(i.ble_conn_state_user_flag_get) for ble_conn_state_user_flag_get
    security_dispatcher.o(i.pairing_failure) refers to peer_database.o(i.pdb_peer_free) for pdb_peer_free
    security_dispatcher.o(i.pairing_failure) refers to peer_database.o(i.pdb_write_buf_release) for pdb_write_buf_release
    security_dispatcher.o(i.pairing_failure) refers to ble_conn_state.o(i.ble_conn_state_user_flag_set) for ble_conn_state_user_flag_set
    security_dispatcher.o(i.pairing_failure) refers to security_dispatcher.o(i.evt_send) for evt_send
    security_dispatcher.o(i.pairing_failure) refers to security_dispatcher.o(.constdata) for .constdata
    security_dispatcher.o(i.pairing_failure) refers to security_dispatcher.o(.data) for .data
    security_dispatcher.o(i.pdb_evt_handler) refers to id_manager.o(i.im_conn_handle_get) for im_conn_handle_get
    security_dispatcher.o(i.pdb_evt_handler) refers to security_dispatcher.o(i.evt_send) for evt_send
    security_dispatcher.o(i.pdb_evt_handler) refers to security_dispatcher.o(.constdata) for .constdata
    security_dispatcher.o(i.sec_info_request_process) refers to id_manager.o(i.im_peer_id_get_by_master_id) for im_peer_id_get_by_master_id
    security_dispatcher.o(i.sec_info_request_process) refers to peer_database.o(i.pdb_read_buf_get) for pdb_read_buf_get
    security_dispatcher.o(i.sec_info_request_process) refers to id_manager.o(i.im_master_id_is_valid) for im_master_id_is_valid
    security_dispatcher.o(i.sec_info_request_process) refers to security_dispatcher.o(i.evt_send) for evt_send
    security_dispatcher.o(i.sec_info_request_process) refers to security_dispatcher.o(i.sec_start_send) for sec_start_send
    security_dispatcher.o(i.sec_info_request_process) refers to security_dispatcher.o(i.sec_proc_start) for sec_proc_start
    security_dispatcher.o(i.sec_proc_start) refers to ble_conn_state.o(i.ble_conn_state_user_flag_set) for ble_conn_state_user_flag_set
    security_dispatcher.o(i.sec_proc_start) refers to id_manager.o(i.im_new_peer_id) for im_new_peer_id
    security_dispatcher.o(i.sec_proc_start) refers to peer_database.o(i.pdb_peer_free) for pdb_peer_free
    security_dispatcher.o(i.sec_proc_start) refers to security_dispatcher.o(.data) for .data
    security_dispatcher.o(i.sec_start_send) refers to security_dispatcher.o(i.evt_send) for evt_send
    security_dispatcher.o(i.sec_start_send) refers to security_dispatcher.o(.constdata) for .constdata
    security_dispatcher.o(i.smd_ble_evt_handler) refers to security_dispatcher.o(i.sec_info_request_process) for sec_info_request_process
    security_dispatcher.o(i.smd_ble_evt_handler) refers to security_dispatcher.o(i.evt_send) for evt_send
    security_dispatcher.o(i.smd_ble_evt_handler) refers to security_dispatcher.o(i.disconnect_process) for disconnect_process
    security_dispatcher.o(i.smd_ble_evt_handler) refers to id_manager.o(i.im_peer_id_get_by_conn_handle) for im_peer_id_get_by_conn_handle
    security_dispatcher.o(i.smd_ble_evt_handler) refers to security_dispatcher.o(i.pairing_failure) for pairing_failure
    security_dispatcher.o(i.smd_ble_evt_handler) refers to security_dispatcher.o(i.auth_status_success_process) for auth_status_success_process
    security_dispatcher.o(i.smd_ble_evt_handler) refers to ble_conn_state.o(i.ble_conn_state_encrypted) for ble_conn_state_encrypted
    security_dispatcher.o(i.smd_ble_evt_handler) refers to ble_conn_state.o(i.ble_conn_state_user_flag_get) for ble_conn_state_user_flag_get
    security_dispatcher.o(i.smd_ble_evt_handler) refers to ble_conn_state.o(i.ble_conn_state_user_flag_set) for ble_conn_state_user_flag_set
    security_dispatcher.o(i.smd_ble_evt_handler) refers to ble_conn_state.o(i.ble_conn_state_mitm_protected) for ble_conn_state_mitm_protected
    security_dispatcher.o(i.smd_ble_evt_handler) refers to security_dispatcher.o(i.encryption_failure) for encryption_failure
    security_dispatcher.o(i.smd_ble_evt_handler) refers to security_dispatcher.o(.constdata) for .constdata
    security_dispatcher.o(i.smd_ble_evt_handler) refers to security_dispatcher.o(.data) for .data
    security_dispatcher.o(i.smd_link_secure) refers to ble_conn_state.o(i.ble_conn_state_role) for ble_conn_state_role
    security_dispatcher.o(i.smd_link_secure) refers to security_dispatcher.o(i.link_secure_central) for link_secure_central
    security_dispatcher.o(i.smd_link_secure) refers to security_dispatcher.o(.data) for .data
    security_dispatcher.o(i.smd_params_reply) refers to ble_conn_state.o(i.ble_conn_state_role) for ble_conn_state_role
    security_dispatcher.o(i.smd_params_reply) refers to memseta.o(.text) for __aeabi_memclr4
    security_dispatcher.o(i.smd_params_reply) refers to id_manager.o(i.im_peer_id_get_by_conn_handle) for im_peer_id_get_by_conn_handle
    security_dispatcher.o(i.smd_params_reply) refers to peer_database.o(i.pdb_peer_allocate) for pdb_peer_allocate
    security_dispatcher.o(i.smd_params_reply) refers to peer_database.o(i.pdb_write_buf_get) for pdb_write_buf_get
    security_dispatcher.o(i.smd_params_reply) refers to id_manager.o(i.im_ble_addr_get) for im_ble_addr_get
    security_dispatcher.o(i.smd_params_reply) refers to peer_database.o(i.pdb_write_buf_store_prepare) for pdb_write_buf_store_prepare
    security_dispatcher.o(i.smd_params_reply) refers to security_dispatcher.o(i.sec_start_send) for sec_start_send
    security_dispatcher.o(i.smd_params_reply) refers to security_dispatcher.o(i.sec_proc_start) for sec_proc_start
    security_dispatcher.o(i.smd_params_reply) refers to security_dispatcher.o(.data) for .data
    security_dispatcher.o(i.smd_register) refers to security_dispatcher.o(i.flag_id_init) for flag_id_init
    security_dispatcher.o(i.smd_register) refers to peer_database.o(i.pdb_register) for pdb_register
    security_dispatcher.o(i.smd_register) refers to security_dispatcher.o(.data) for .data
    security_dispatcher.o(i.smd_register) refers to security_dispatcher.o(i.pdb_evt_handler) for pdb_evt_handler
    security_manager.o(i.events_send_from_err_code) refers to security_manager.o(i.evt_send) for evt_send
    security_manager.o(i.evt_send) refers to security_manager.o(.data) for .data
    security_manager.o(i.flag_id_init) refers to ble_conn_state.o(i.ble_conn_state_user_flag_acquire) for ble_conn_state_user_flag_acquire
    security_manager.o(i.flags_set_from_err_code) refers to ble_conn_state.o(i.ble_conn_state_user_flag_set) for ble_conn_state_user_flag_set
    security_manager.o(i.flags_set_from_err_code) refers to security_manager.o(.data) for .data
    security_manager.o(i.link_secure) refers to security_dispatcher.o(i.smd_link_secure) for smd_link_secure
    security_manager.o(i.link_secure) refers to security_manager.o(i.flags_set_from_err_code) for flags_set_from_err_code
    security_manager.o(i.link_secure) refers to security_manager.o(i.events_send_from_err_code) for events_send_from_err_code
    security_manager.o(i.link_secure) refers to ble_conn_state.o(i.ble_conn_state_user_flag_set) for ble_conn_state_user_flag_set
    security_manager.o(i.link_secure) refers to security_manager.o(.data) for .data
    security_manager.o(i.link_secure_pending_process) refers to ble_conn_state.o(i.ble_conn_state_user_flag_collection) for ble_conn_state_user_flag_collection
    security_manager.o(i.link_secure_pending_process) refers to ble_conn_state.o(i.ble_conn_state_conn_handles) for ble_conn_state_conn_handles
    security_manager.o(i.link_secure_pending_process) refers to ble_conn_state.o(i.ble_conn_state_user_flag_get) for ble_conn_state_user_flag_get
    security_manager.o(i.link_secure_pending_process) refers to security_manager.o(i.link_secure) for link_secure
    security_manager.o(i.link_secure_pending_process) refers to security_manager.o(.data) for .data
    security_manager.o(i.params_reply_pending_process) refers to ble_conn_state.o(i.ble_conn_state_user_flag_collection) for ble_conn_state_user_flag_collection
    security_manager.o(i.params_reply_pending_process) refers to ble_conn_state.o(i.ble_conn_state_conn_handles) for ble_conn_state_conn_handles
    security_manager.o(i.params_reply_pending_process) refers to ble_conn_state.o(i.ble_conn_state_user_flag_get) for ble_conn_state_user_flag_get
    security_manager.o(i.params_reply_pending_process) refers to security_manager.o(i.smd_params_reply_perform) for smd_params_reply_perform
    security_manager.o(i.pdb_evt_handler) refers to main.o(i.__ARM_common_switch8) for __ARM_common_switch8
    security_manager.o(i.pdb_evt_handler) refers to security_manager.o(i.params_reply_pending_process) for params_reply_pending_process
    security_manager.o(i.pdb_evt_handler) refers to security_manager.o(i.link_secure_pending_process) for link_secure_pending_process
    security_manager.o(i.pdb_evt_handler) refers to security_manager.o(.data) for .data
    security_manager.o(i.sm_ble_evt_handler) refers to security_dispatcher.o(i.smd_ble_evt_handler) for smd_ble_evt_handler
    security_manager.o(i.sm_ble_evt_handler) refers to security_manager.o(i.link_secure_pending_process) for link_secure_pending_process
    security_manager.o(i.sm_ble_evt_handler) refers to security_manager.o(.data) for .data
    security_manager.o(i.sm_link_secure) refers to security_manager.o(i.link_secure) for link_secure
    security_manager.o(i.sm_link_secure) refers to security_manager.o(.data) for .data
    security_manager.o(i.sm_register) refers to security_manager.o(i.flag_id_init) for flag_id_init
    security_manager.o(i.sm_register) refers to peer_database.o(i.pdb_register) for pdb_register
    security_manager.o(i.sm_register) refers to security_dispatcher.o(i.smd_register) for smd_register
    security_manager.o(i.sm_register) refers to security_manager.o(.data) for .data
    security_manager.o(i.sm_register) refers to security_manager.o(i.pdb_evt_handler) for pdb_evt_handler
    security_manager.o(i.sm_register) refers to security_manager.o(i.smd_evt_handler) for smd_evt_handler
    security_manager.o(i.sm_sec_params_reply) refers to security_manager.o(.data) for .data
    security_manager.o(i.sm_sec_params_set) refers to security_manager.o(i.sec_params_verify) for sec_params_verify
    security_manager.o(i.sm_sec_params_set) refers to memmovea.o(.text) for __aeabi_memcpy
    security_manager.o(i.sm_sec_params_set) refers to security_manager.o(.data) for .data
    security_manager.o(i.smd_evt_handler) refers to main.o(i.__ARM_common_switch8) for __ARM_common_switch8
    security_manager.o(i.smd_evt_handler) refers to security_manager.o(i.smd_params_reply_perform) for smd_params_reply_perform
    security_manager.o(i.smd_evt_handler) refers to security_manager.o(i.link_secure) for link_secure
    security_manager.o(i.smd_evt_handler) refers to security_manager.o(i.evt_send) for evt_send
    security_manager.o(i.smd_evt_handler) refers to security_manager.o(.data) for .data
    security_manager.o(i.smd_params_reply_perform) refers to security_dispatcher.o(i.smd_params_reply) for smd_params_reply
    security_manager.o(i.smd_params_reply_perform) refers to security_manager.o(i.flags_set_from_err_code) for flags_set_from_err_code
    security_manager.o(i.smd_params_reply_perform) refers to security_manager.o(i.events_send_from_err_code) for events_send_from_err_code
    security_manager.o(i.smd_params_reply_perform) refers to security_manager.o(.data) for .data
    ble_hrs.o(i.ble_hrs_heart_rate_measurement_send) refers to ble_hrs.o(i.hrm_encode) for hrm_encode
    ble_hrs.o(i.ble_hrs_init) refers to ble_hrs.o(i.heart_rate_measurement_char_add) for heart_rate_measurement_char_add
    ble_hrs.o(i.ble_hrs_init) refers to ble_hrs.o(i.body_sensor_location_char_add) for body_sensor_location_char_add
    ble_hrs.o(i.ble_hrs_rr_interval_add) refers to memmovea.o(.text) for __aeabi_memmove
    ble_hrs.o(i.body_sensor_location_char_add) refers to memseta.o(.text) for __aeabi_memclr4
    ble_hrs.o(i.heart_rate_measurement_char_add) refers to memseta.o(.text) for __aeabi_memclr4
    ble_hrs.o(i.heart_rate_measurement_char_add) refers to ble_hrs.o(i.hrm_encode) for hrm_encode
    ble_hrs.o(i.hrm_encode) refers to memmovea.o(.text) for __aeabi_memmove
    ble_hrs_c.o(i.ble_hrs_c_hrm_notif_enable) refers to ble_hrs_c.o(i.tx_buffer_process) for tx_buffer_process
    ble_hrs_c.o(i.ble_hrs_c_hrm_notif_enable) refers to ble_hrs_c.o(.data) for .data
    ble_hrs_c.o(i.ble_hrs_c_hrm_notif_enable) refers to ble_hrs_c.o(.bss) for .bss
    ble_hrs_c.o(i.ble_hrs_c_init) refers to ble_db_discovery.o(i.ble_db_discovery_evt_register) for ble_db_discovery_evt_register
    ble_hrs_c.o(i.ble_hrs_c_init) refers to ble_hrs_c.o(.data) for .data
    ble_hrs_c.o(i.ble_hrs_c_init) refers to ble_hrs_c.o(i.db_discover_evt_handler) for db_discover_evt_handler
    ble_hrs_c.o(i.ble_hrs_c_on_ble_evt) refers to ble_hrs_c.o(i.tx_buffer_process) for tx_buffer_process
    ble_hrs_c.o(i.db_discover_evt_handler) refers to ble_hrs_c.o(.data) for .data
    ble_hrs_c.o(i.tx_buffer_process) refers to ble_hrs_c.o(.data) for .data
    ble_hrs_c.o(i.tx_buffer_process) refers to ble_hrs_c.o(.bss) for .bss
    ble_rscs.o(i.ble_rscs_init) refers to ble_rscs.o(i.rsc_measurement_char_add) for rsc_measurement_char_add
    ble_rscs.o(i.ble_rscs_init) refers to ble_rscs.o(i.rsc_feature_char_add) for rsc_feature_char_add
    ble_rscs.o(i.ble_rscs_measurement_send) refers to ble_rscs.o(i.rsc_measurement_encode) for rsc_measurement_encode
    ble_rscs.o(i.rsc_feature_char_add) refers to memseta.o(.text) for __aeabi_memclr4
    ble_rscs.o(i.rsc_measurement_char_add) refers to memseta.o(.text) for __aeabi_memclr4
    ble_rscs.o(i.rsc_measurement_char_add) refers to ble_rscs.o(i.rsc_measurement_encode) for rsc_measurement_encode
    ble_rscs_c.o(i.ble_rscs_c_init) refers to ble_db_discovery.o(i.ble_db_discovery_evt_register) for ble_db_discovery_evt_register
    ble_rscs_c.o(i.ble_rscs_c_init) refers to ble_rscs_c.o(.data) for .data
    ble_rscs_c.o(i.ble_rscs_c_init) refers to ble_rscs_c.o(i.db_discover_evt_handler) for db_discover_evt_handler
    ble_rscs_c.o(i.ble_rscs_c_on_ble_evt) refers to ble_rscs_c.o(i.on_hvx) for on_hvx
    ble_rscs_c.o(i.ble_rscs_c_on_ble_evt) refers to ble_rscs_c.o(i.tx_buffer_process) for tx_buffer_process
    ble_rscs_c.o(i.ble_rscs_c_rsc_notif_enable) refers to ble_rscs_c.o(i.tx_buffer_process) for tx_buffer_process
    ble_rscs_c.o(i.ble_rscs_c_rsc_notif_enable) refers to ble_rscs_c.o(.data) for .data
    ble_rscs_c.o(i.ble_rscs_c_rsc_notif_enable) refers to ble_rscs_c.o(.bss) for .bss
    ble_rscs_c.o(i.db_discover_evt_handler) refers to ble_rscs_c.o(.data) for .data
    ble_rscs_c.o(i.on_hvx) refers to uread4.o(.text) for __aeabi_uread4
    ble_rscs_c.o(i.tx_buffer_process) refers to ble_rscs_c.o(.data) for .data
    ble_rscs_c.o(i.tx_buffer_process) refers to ble_rscs_c.o(.bss) for .bss
    ble_srv_common.o(i.ble_srv_ascii_to_utf8) refers to strlen.o(.text) for strlen
    ble_srv_common.o(i.characteristic_add) refers to ble_srv_common.o(i.set_security_req) for set_security_req
    ble_srv_common.o(i.characteristic_add) refers to memseta.o(.text) for __aeabi_memclr4
    ble_srv_common.o(i.descriptor_add) refers to memseta.o(.text) for __aeabi_memclr4
    ble_srv_common.o(i.descriptor_add) refers to ble_srv_common.o(i.set_security_req) for set_security_req
    ble_srv_common.o(i.set_security_req) refers to main.o(i.__ARM_common_switch8) for __ARM_common_switch8
    app_uart.o(i.app_uart_close) refers to nrf_drv_uart.o(i.nrf_drv_uart_uninit) for nrf_drv_uart_uninit
    app_uart.o(i.app_uart_get) refers to app_uart.o(.data) for .data
    app_uart.o(i.app_uart_init) refers to memmovea.o(.text) for __aeabi_memcpy4
    app_uart.o(i.app_uart_init) refers to nrf_drv_uart.o(i.nrf_drv_uart_init) for nrf_drv_uart_init
    app_uart.o(i.app_uart_init) refers to nrf_drv_uart.o(i.nrf_drv_uart_rx_enable) for nrf_drv_uart_rx_enable
    app_uart.o(i.app_uart_init) refers to nrf_drv_uart.o(i.nrf_drv_uart_rx) for nrf_drv_uart_rx
    app_uart.o(i.app_uart_init) refers to app_uart.o(.constdata) for .constdata
    app_uart.o(i.app_uart_init) refers to app_uart.o(.data) for .data
    app_uart.o(i.app_uart_init) refers to app_uart.o(i.uart_event_handler) for uart_event_handler
    app_uart.o(i.app_uart_put) refers to nrf_drv_uart.o(i.nrf_drv_uart_tx) for nrf_drv_uart_tx
    app_uart.o(i.app_uart_put) refers to app_uart.o(.data) for .data
    app_uart.o(i.uart_event_handler) refers to nrf_drv_uart.o(i.nrf_drv_uart_rx) for nrf_drv_uart_rx
    app_uart.o(i.uart_event_handler) refers to app_uart.o(.data) for .data
    pstorage.o(i.app_notify) refers to pstorage.o(.bss) for .bss
    pstorage.o(i.app_notify) refers to pstorage.o(.data) for .data
    pstorage.o(i.app_notify_error_state_transit) refers to pstorage.o(i.app_notify) for app_notify
    pstorage.o(i.app_notify_error_state_transit) refers to pstorage.o(i.sm_state_change) for sm_state_change
    pstorage.o(i.app_notify_error_state_transit) refers to pstorage.o(.bss) for .bss
    pstorage.o(i.clear_operation_execute) refers to pstorage.o(i.pstorage_flash_page_size) for pstorage_flash_page_size
    pstorage.o(i.clear_operation_execute) refers to uidiv.o(.text) for __aeabi_uidivmod
    pstorage.o(i.clear_operation_execute) refers to pstorage.o(i.sm_state_change) for sm_state_change
    pstorage.o(i.clear_operation_execute) refers to pstorage.o(.bss) for .bss
    pstorage.o(i.clear_operation_execute) refers to pstorage.o(.data) for .data
    pstorage.o(i.clear_post_processing_run) refers to pstorage.o(i.command_end_procedure_run) for command_end_procedure_run
    pstorage.o(i.clear_post_processing_run) refers to pstorage.o(i.sm_state_change) for sm_state_change
    pstorage.o(i.clear_post_processing_run) refers to pstorage.o(.bss) for .bss
    pstorage.o(i.cmd_process) refers to pstorage.o(i.clear_operation_execute) for clear_operation_execute
    pstorage.o(i.cmd_process) refers to pstorage.o(i.sm_state_change) for sm_state_change
    pstorage.o(i.cmd_process) refers to pstorage.o(.bss) for .bss
    pstorage.o(i.cmd_process) refers to pstorage.o(.data) for .data
    pstorage.o(i.cmd_queue_element_init) refers to pstorage.o(.bss) for .bss
    pstorage.o(i.cmd_queue_enqueue) refers to pstorage.o(i.cmd_process) for cmd_process
    pstorage.o(i.cmd_queue_enqueue) refers to pstorage.o(.bss) for .bss
    pstorage.o(i.cmd_queue_enqueue) refers to pstorage.o(.data) for .data
    pstorage.o(i.command_end_procedure_run) refers to pstorage.o(i.app_notify) for app_notify
    pstorage.o(i.command_end_procedure_run) refers to pstorage.o(i.cmd_queue_element_init) for cmd_queue_element_init
    pstorage.o(i.command_end_procedure_run) refers to pstorage.o(i.sm_state_change) for sm_state_change
    pstorage.o(i.command_end_procedure_run) refers to pstorage.o(.bss) for .bss
    pstorage.o(i.data_page_erase_state_run) refers to pstorage.o(i.is_page_erase_required) for is_page_erase_required
    pstorage.o(i.data_page_erase_state_run) refers to pstorage.o(i.swap_sub_state_state_change) for swap_sub_state_state_change
    pstorage.o(i.data_page_erase_state_run) refers to pstorage.o(i.clear_post_processing_run) for clear_post_processing_run
    pstorage.o(i.data_page_erase_state_run) refers to pstorage.o(i.swap_sub_state_err_busy_process) for swap_sub_state_err_busy_process
    pstorage.o(i.data_page_erase_state_run) refers to pstorage.o(.data) for .data
    pstorage.o(i.data_to_swap_write_state_run) refers to pstorage.o(i.swap_sub_state_state_change) for swap_sub_state_state_change
    pstorage.o(i.data_to_swap_write_state_run) refers to pstorage.o(i.swap_sub_state_err_busy_process) for swap_sub_state_err_busy_process
    pstorage.o(i.data_to_swap_write_state_run) refers to pstorage.o(.data) for .data
    pstorage.o(i.flash_api_err_code_process) refers to pstorage.o(i.app_notify_error_state_transit) for app_notify_error_state_transit
    pstorage.o(i.flash_api_err_code_process) refers to pstorage.o(.data) for .data
    pstorage.o(i.flash_operation_success_run) refers to pstorage.o(i.store_cmd_flash_write_execute) for store_cmd_flash_write_execute
    pstorage.o(i.flash_operation_success_run) refers to pstorage.o(i.command_end_procedure_run) for command_end_procedure_run
    pstorage.o(i.flash_operation_success_run) refers to pstorage.o(i.main_state_err_busy_process) for main_state_err_busy_process
    pstorage.o(i.flash_operation_success_run) refers to pstorage.o(i.is_page_erase_required) for is_page_erase_required
    pstorage.o(i.flash_operation_success_run) refers to pstorage.o(i.sm_state_change) for sm_state_change
    pstorage.o(i.flash_operation_success_run) refers to pstorage.o(i.clear_post_processing_run) for clear_post_processing_run
    pstorage.o(i.flash_operation_success_run) refers to pstorage.o(.data) for .data
    pstorage.o(i.flash_operation_success_run) refers to pstorage.o(.bss) for .bss
    pstorage.o(i.flash_operation_success_run) refers to pstorage.o(.constdata) for .constdata
    pstorage.o(i.flash_page_erase) refers to pstorage.o(i.flash_api_err_code_process) for flash_api_err_code_process
    pstorage.o(i.flash_write) refers to pstorage.o(i.flash_api_err_code_process) for flash_api_err_code_process
    pstorage.o(i.head_restore_state_run) refers to pstorage.o(i.pstorage_flash_page_size) for pstorage_flash_page_size
    pstorage.o(i.head_restore_state_run) refers to uidiv.o(.text) for __aeabi_uidivmod
    pstorage.o(i.head_restore_state_run) refers to pstorage.o(i.is_page_erase_required) for is_page_erase_required
    pstorage.o(i.head_restore_state_run) refers to pstorage.o(i.swap_sub_state_state_change) for swap_sub_state_state_change
    pstorage.o(i.head_restore_state_run) refers to pstorage.o(i.clear_post_processing_run) for clear_post_processing_run
    pstorage.o(i.head_restore_state_run) refers to pstorage.o(i.swap_sub_state_err_busy_process) for swap_sub_state_err_busy_process
    pstorage.o(i.head_restore_state_run) refers to pstorage.o(.data) for .data
    pstorage.o(i.head_restore_state_run) refers to pstorage.o(.bss) for .bss
    pstorage.o(i.is_page_erase_required) refers to pstorage.o(i.pstorage_flash_page_size) for pstorage_flash_page_size
    pstorage.o(i.is_page_erase_required) refers to uidiv.o(.text) for __aeabi_uidivmod
    pstorage.o(i.is_page_erase_required) refers to pstorage.o(.bss) for .bss
    pstorage.o(i.is_page_erase_required) refers to pstorage.o(.data) for .data
    pstorage.o(i.main_state_err_busy_process) refers to pstorage.o(i.sm_state_change) for sm_state_change
    pstorage.o(i.main_state_err_busy_process) refers to pstorage.o(.data) for .data
    pstorage.o(i.pstorage_access_status_get) refers to pstorage.o(.data) for .data
    pstorage.o(i.pstorage_access_status_get) refers to pstorage.o(.bss) for .bss
    pstorage.o(i.pstorage_block_identifier_get) refers to pstorage.o(.data) for .data
    pstorage.o(i.pstorage_block_identifier_get) refers to pstorage.o(.bss) for .bss
    pstorage.o(i.pstorage_clear) refers to pstorage.o(i.is_word_aligned) for is_word_aligned
    pstorage.o(i.pstorage_clear) refers to uidiv.o(.text) for __aeabi_uidivmod
    pstorage.o(i.pstorage_clear) refers to pstorage.o(i.cmd_queue_enqueue) for cmd_queue_enqueue
    pstorage.o(i.pstorage_clear) refers to pstorage.o(.data) for .data
    pstorage.o(i.pstorage_clear) refers to pstorage.o(.bss) for .bss
    pstorage.o(i.pstorage_flash_page_end) refers to pstorage.o(i.pstorage_flash_page_size) for pstorage_flash_page_size
    pstorage.o(i.pstorage_flash_page_end) refers to uidiv.o(.text) for __aeabi_uidivmod
    pstorage.o(i.pstorage_init) refers to pstorage.o(i.cmd_queue_element_init) for cmd_queue_element_init
    pstorage.o(i.pstorage_init) refers to pstorage.o(i.pstorage_flash_page_end) for pstorage_flash_page_end
    pstorage.o(i.pstorage_init) refers to pstorage.o(i.pstorage_flash_page_size) for pstorage_flash_page_size
    pstorage.o(i.pstorage_init) refers to pstorage.o(.bss) for .bss
    pstorage.o(i.pstorage_init) refers to pstorage.o(.data) for .data
    pstorage.o(i.pstorage_load) refers to pstorage.o(i.is_word_aligned) for is_word_aligned
    pstorage.o(i.pstorage_load) refers to memmovea.o(.text) for __aeabi_memcpy
    pstorage.o(i.pstorage_load) refers to pstorage.o(.data) for .data
    pstorage.o(i.pstorage_load) refers to pstorage.o(.bss) for .bss
    pstorage.o(i.pstorage_register) refers to pstorage.o(i.pstorage_flash_page_size) for pstorage_flash_page_size
    pstorage.o(i.pstorage_register) refers to pstorage.o(i.pstorage_flash_page_end) for pstorage_flash_page_end
    pstorage.o(i.pstorage_register) refers to idiv.o(.text) for __aeabi_idivmod
    pstorage.o(i.pstorage_register) refers to pstorage.o(.data) for .data
    pstorage.o(i.pstorage_register) refers to pstorage.o(.bss) for .bss
    pstorage.o(i.pstorage_store) refers to pstorage.o(i.is_word_aligned) for is_word_aligned
    pstorage.o(i.pstorage_store) refers to pstorage.o(i.cmd_queue_enqueue) for cmd_queue_enqueue
    pstorage.o(i.pstorage_store) refers to pstorage.o(.data) for .data
    pstorage.o(i.pstorage_store) refers to pstorage.o(.bss) for .bss
    pstorage.o(i.pstorage_sys_event_handler) refers to pstorage.o(i.sm_state_change) for sm_state_change
    pstorage.o(i.pstorage_sys_event_handler) refers to pstorage.o(i.swap_sub_state_state_change) for swap_sub_state_state_change
    pstorage.o(i.pstorage_sys_event_handler) refers to pstorage.o(i.app_notify_error_state_transit) for app_notify_error_state_transit
    pstorage.o(i.pstorage_sys_event_handler) refers to pstorage.o(i.flash_operation_success_run) for flash_operation_success_run
    pstorage.o(i.pstorage_sys_event_handler) refers to pstorage.o(.data) for .data
    pstorage.o(i.pstorage_update) refers to pstorage.o(i.is_word_aligned) for is_word_aligned
    pstorage.o(i.pstorage_update) refers to pstorage.o(i.cmd_queue_enqueue) for cmd_queue_enqueue
    pstorage.o(i.pstorage_update) refers to pstorage.o(.data) for .data
    pstorage.o(i.pstorage_update) refers to pstorage.o(.bss) for .bss
    pstorage.o(i.sm_state_change) refers to pstorage.o(i.flash_page_erase) for flash_page_erase
    pstorage.o(i.sm_state_change) refers to pstorage.o(i.cmd_process) for cmd_process
    pstorage.o(i.sm_state_change) refers to pstorage.o(i.store_cmd_flash_write_execute) for store_cmd_flash_write_execute
    pstorage.o(i.sm_state_change) refers to pstorage.o(i.state_data_erase_swap_entry_run) for state_data_erase_swap_entry_run
    pstorage.o(i.sm_state_change) refers to pstorage.o(.data) for .data
    pstorage.o(i.sm_state_change) refers to pstorage.o(.bss) for .bss
    pstorage.o(i.state_data_erase_swap_entry_run) refers to pstorage.o(i.pstorage_flash_page_size) for pstorage_flash_page_size
    pstorage.o(i.state_data_erase_swap_entry_run) refers to uidiv.o(.text) for __aeabi_uidivmod
    pstorage.o(i.state_data_erase_swap_entry_run) refers to pstorage.o(i.swap_sub_state_state_change) for swap_sub_state_state_change
    pstorage.o(i.state_data_erase_swap_entry_run) refers to pstorage.o(.data) for .data
    pstorage.o(i.state_data_erase_swap_entry_run) refers to pstorage.o(.bss) for .bss
    pstorage.o(i.state_erase_data_page_entry_run) refers to pstorage.o(i.flash_page_erase) for flash_page_erase
    pstorage.o(i.state_erase_data_page_entry_run) refers to pstorage.o(.data) for .data
    pstorage.o(i.state_restore_head_entry_run) refers to pstorage.o(i.pstorage_flash_page_end) for pstorage_flash_page_end
    pstorage.o(i.state_restore_head_entry_run) refers to pstorage.o(i.pstorage_flash_page_size) for pstorage_flash_page_size
    pstorage.o(i.state_restore_head_entry_run) refers to pstorage.o(i.flash_write) for flash_write
    pstorage.o(i.state_restore_head_entry_run) refers to pstorage.o(.data) for .data
    pstorage.o(i.state_restore_tail_entry_run) refers to pstorage.o(i.pstorage_flash_page_size) for pstorage_flash_page_size
    pstorage.o(i.state_restore_tail_entry_run) refers to uidiv.o(.text) for __aeabi_uidivmod
    pstorage.o(i.state_restore_tail_entry_run) refers to pstorage.o(i.pstorage_flash_page_end) for pstorage_flash_page_end
    pstorage.o(i.state_restore_tail_entry_run) refers to pstorage.o(i.flash_write) for flash_write
    pstorage.o(i.state_restore_tail_entry_run) refers to pstorage.o(.bss) for .bss
    pstorage.o(i.state_restore_tail_entry_run) refers to pstorage.o(.data) for .data
    pstorage.o(i.state_swap_erase_entry_run) refers to pstorage.o(i.pstorage_flash_page_size) for pstorage_flash_page_size
    pstorage.o(i.state_swap_erase_entry_run) refers to pstorage.o(i.pstorage_flash_page_end) for pstorage_flash_page_end
    pstorage.o(i.state_swap_erase_entry_run) refers to uidiv.o(.text) for __aeabi_uidivmod
    pstorage.o(i.state_swap_erase_entry_run) refers to pstorage.o(i.flash_page_erase) for flash_page_erase
    pstorage.o(i.state_write_data_swap_entry_run) refers to pstorage.o(i.pstorage_flash_page_size) for pstorage_flash_page_size
    pstorage.o(i.state_write_data_swap_entry_run) refers to pstorage.o(i.pstorage_flash_page_end) for pstorage_flash_page_end
    pstorage.o(i.state_write_data_swap_entry_run) refers to pstorage.o(i.flash_write) for flash_write
    pstorage.o(i.state_write_data_swap_entry_run) refers to pstorage.o(.data) for .data
    pstorage.o(i.store_cmd_flash_write_execute) refers to pstorage.o(i.pstorage_flash_page_size) for pstorage_flash_page_size
    pstorage.o(i.store_cmd_flash_write_execute) refers to pstorage.o(i.flash_write) for flash_write
    pstorage.o(i.store_cmd_flash_write_execute) refers to pstorage.o(.bss) for .bss
    pstorage.o(i.store_cmd_flash_write_execute) refers to pstorage.o(.data) for .data
    pstorage.o(i.swap_erase_state_run) refers to pstorage.o(i.swap_sub_state_state_change) for swap_sub_state_state_change
    pstorage.o(i.swap_erase_state_run) refers to pstorage.o(i.swap_sub_state_err_busy_process) for swap_sub_state_err_busy_process
    pstorage.o(i.swap_erase_state_run) refers to pstorage.o(.data) for .data
    pstorage.o(i.swap_sub_state_err_busy_process) refers to pstorage.o(i.swap_sub_state_state_change) for swap_sub_state_state_change
    pstorage.o(i.swap_sub_state_err_busy_process) refers to pstorage.o(.data) for .data
    pstorage.o(i.swap_sub_state_state_change) refers to pstorage.o(.data) for .data
    pstorage.o(i.swap_sub_state_state_change) refers to pstorage.o(.constdata) for .constdata
    pstorage.o(i.tail_restore_state_run) refers to pstorage.o(i.clear_post_processing_run) for clear_post_processing_run
    pstorage.o(i.tail_restore_state_run) refers to pstorage.o(i.swap_sub_state_err_busy_process) for swap_sub_state_err_busy_process
    pstorage.o(i.tail_restore_state_run) refers to pstorage.o(.data) for .data
    pstorage.o(.constdata) refers to pstorage.o(i.state_swap_erase_entry_run) for state_swap_erase_entry_run
    pstorage.o(.constdata) refers to pstorage.o(i.state_write_data_swap_entry_run) for state_write_data_swap_entry_run
    pstorage.o(.constdata) refers to pstorage.o(i.state_erase_data_page_entry_run) for state_erase_data_page_entry_run
    pstorage.o(.constdata) refers to pstorage.o(i.state_restore_tail_entry_run) for state_restore_tail_entry_run
    pstorage.o(.constdata) refers to pstorage.o(i.state_restore_head_entry_run) for state_restore_head_entry_run
    pstorage.o(.constdata) refers to pstorage.o(i.swap_erase_state_run) for swap_erase_state_run
    pstorage.o(.constdata) refers to pstorage.o(i.data_to_swap_write_state_run) for data_to_swap_write_state_run
    pstorage.o(.constdata) refers to pstorage.o(i.data_page_erase_state_run) for data_page_erase_state_run
    pstorage.o(.constdata) refers to pstorage.o(i.tail_restore_state_run) for tail_restore_state_run
    pstorage.o(.constdata) refers to pstorage.o(i.head_restore_state_run) for head_restore_state_run
    nrf_delay.o(i.nrf_delay_ms) refers to nrf_delay.o(.emb_text) for __asm___11_nrf_delay_c_532987f3__nrf_delay_us
    nrf_drv_gpiote.o(i.GPIOTE_IRQHandler) refers to nrf_drv_gpiote.o(i.nrf_gpiote_event_is_set) for nrf_gpiote_event_is_set
    nrf_drv_gpiote.o(i.GPIOTE_IRQHandler) refers to nrf_drv_gpiote.o(i.channel_port_get) for channel_port_get
    nrf_drv_gpiote.o(i.GPIOTE_IRQHandler) refers to nrf_drv_gpiote.o(i.nrf_gpio_cfg_sense_set) for nrf_gpio_cfg_sense_set
    nrf_drv_gpiote.o(i.GPIOTE_IRQHandler) refers to nrf_drv_gpiote.o(.bss) for .bss
    nrf_drv_gpiote.o(i.channel_free) refers to nrf_drv_gpiote.o(.bss) for .bss
    nrf_drv_gpiote.o(i.channel_port_alloc) refers to nrf_drv_gpiote.o(.bss) for .bss
    nrf_drv_gpiote.o(i.channel_port_get) refers to nrf_drv_gpiote.o(.bss) for .bss
    nrf_drv_gpiote.o(i.nrf_drv_gpiote_in_event_addr_get) refers to nrf_drv_gpiote.o(i.channel_port_get) for channel_port_get
    nrf_drv_gpiote.o(i.nrf_drv_gpiote_in_event_disable) refers to nrf_drv_gpiote.o(i.pin_in_use_by_port) for pin_in_use_by_port
    nrf_drv_gpiote.o(i.nrf_drv_gpiote_in_event_disable) refers to nrf_drv_gpiote.o(i.nrf_gpio_cfg_sense_set) for nrf_gpio_cfg_sense_set
    nrf_drv_gpiote.o(i.nrf_drv_gpiote_in_event_disable) refers to nrf_drv_gpiote.o(i.pin_in_use_by_te) for pin_in_use_by_te
    nrf_drv_gpiote.o(i.nrf_drv_gpiote_in_event_disable) refers to nrf_drv_gpiote.o(i.channel_port_get) for channel_port_get
    nrf_drv_gpiote.o(i.nrf_drv_gpiote_in_event_enable) refers to nrf_drv_gpiote.o(i.pin_in_use_by_port) for pin_in_use_by_port
    nrf_drv_gpiote.o(i.nrf_drv_gpiote_in_event_enable) refers to nrf_drv_gpiote.o(i.channel_port_get) for channel_port_get
    nrf_drv_gpiote.o(i.nrf_drv_gpiote_in_event_enable) refers to nrf_drv_gpiote.o(i.nrf_gpio_cfg_sense_set) for nrf_gpio_cfg_sense_set
    nrf_drv_gpiote.o(i.nrf_drv_gpiote_in_event_enable) refers to nrf_drv_gpiote.o(i.pin_in_use_by_te) for pin_in_use_by_te
    nrf_drv_gpiote.o(i.nrf_drv_gpiote_in_event_enable) refers to nrf_drv_gpiote.o(.bss) for .bss
    nrf_drv_gpiote.o(i.nrf_drv_gpiote_in_init) refers to nrf_drv_gpiote.o(i.channel_port_alloc) for channel_port_alloc
    nrf_drv_gpiote.o(i.nrf_drv_gpiote_in_init) refers to nrf_drv_gpiote.o(i.nrf_gpio_cfg) for nrf_gpio_cfg
    nrf_drv_gpiote.o(i.nrf_drv_gpiote_in_init) refers to nrf_drv_gpiote.o(.bss) for .bss
    nrf_drv_gpiote.o(i.nrf_drv_gpiote_in_uninit) refers to nrf_drv_gpiote.o(i.nrf_drv_gpiote_in_event_disable) for nrf_drv_gpiote_in_event_disable
    nrf_drv_gpiote.o(i.nrf_drv_gpiote_in_uninit) refers to nrf_drv_gpiote.o(i.pin_in_use_by_te) for pin_in_use_by_te
    nrf_drv_gpiote.o(i.nrf_drv_gpiote_in_uninit) refers to nrf_drv_gpiote.o(i.channel_port_get) for channel_port_get
    nrf_drv_gpiote.o(i.nrf_drv_gpiote_in_uninit) refers to nrf_drv_gpiote.o(i.nrf_gpio_cfg_default) for nrf_gpio_cfg_default
    nrf_drv_gpiote.o(i.nrf_drv_gpiote_in_uninit) refers to nrf_drv_gpiote.o(i.channel_free) for channel_free
    nrf_drv_gpiote.o(i.nrf_drv_gpiote_in_uninit) refers to nrf_drv_gpiote.o(.bss) for .bss
    nrf_drv_gpiote.o(i.nrf_drv_gpiote_init) refers to nrf_drv_gpiote.o(i.channel_free) for channel_free
    nrf_drv_gpiote.o(i.nrf_drv_gpiote_init) refers to nrf_drv_common.o(i.nrf_drv_common_irq_enable) for nrf_drv_common_irq_enable
    nrf_drv_gpiote.o(i.nrf_drv_gpiote_init) refers to nrf_drv_gpiote.o(.bss) for .bss
    nrf_drv_gpiote.o(i.nrf_drv_gpiote_is_init) refers to nrf_drv_gpiote.o(.bss) for .bss
    nrf_drv_gpiote.o(i.nrf_drv_gpiote_out_init) refers to nrf_drv_gpiote.o(i.channel_port_alloc) for channel_port_alloc
    nrf_drv_gpiote.o(i.nrf_drv_gpiote_out_init) refers to nrf_drv_gpiote.o(i.nrf_gpio_cfg) for nrf_gpio_cfg
    nrf_drv_gpiote.o(i.nrf_drv_gpiote_out_init) refers to nrf_drv_gpiote.o(.bss) for .bss
    nrf_drv_gpiote.o(i.nrf_drv_gpiote_out_task_addr_get) refers to nrf_drv_gpiote.o(i.channel_port_get) for channel_port_get
    nrf_drv_gpiote.o(i.nrf_drv_gpiote_out_task_disable) refers to nrf_drv_gpiote.o(.bss) for .bss
    nrf_drv_gpiote.o(i.nrf_drv_gpiote_out_task_enable) refers to nrf_drv_gpiote.o(.bss) for .bss
    nrf_drv_gpiote.o(i.nrf_drv_gpiote_out_task_force) refers to nrf_drv_gpiote.o(.bss) for .bss
    nrf_drv_gpiote.o(i.nrf_drv_gpiote_out_task_trigger) refers to nrf_drv_gpiote.o(i.channel_port_get) for channel_port_get
    nrf_drv_gpiote.o(i.nrf_drv_gpiote_out_uninit) refers to nrf_drv_gpiote.o(i.pin_in_use_by_te) for pin_in_use_by_te
    nrf_drv_gpiote.o(i.nrf_drv_gpiote_out_uninit) refers to nrf_drv_gpiote.o(i.channel_port_get) for channel_port_get
    nrf_drv_gpiote.o(i.nrf_drv_gpiote_out_uninit) refers to nrf_drv_gpiote.o(i.channel_free) for channel_free
    nrf_drv_gpiote.o(i.nrf_drv_gpiote_out_uninit) refers to nrf_drv_gpiote.o(i.nrf_gpio_cfg_default) for nrf_gpio_cfg_default
    nrf_drv_gpiote.o(i.nrf_drv_gpiote_out_uninit) refers to nrf_drv_gpiote.o(.bss) for .bss
    nrf_drv_gpiote.o(i.nrf_drv_gpiote_uninit) refers to nrf_drv_gpiote.o(i.nrf_drv_gpiote_in_uninit) for nrf_drv_gpiote_in_uninit
    nrf_drv_gpiote.o(i.nrf_drv_gpiote_uninit) refers to nrf_drv_gpiote.o(i.nrf_drv_gpiote_out_uninit) for nrf_drv_gpiote_out_uninit
    nrf_drv_gpiote.o(i.nrf_drv_gpiote_uninit) refers to nrf_drv_gpiote.o(.bss) for .bss
    nrf_drv_gpiote.o(i.nrf_gpio_cfg_default) refers to nrf_drv_gpiote.o(i.nrf_gpio_cfg) for nrf_gpio_cfg
    nrf_drv_gpiote.o(i.pin_in_use_by_port) refers to nrf_drv_gpiote.o(.bss) for .bss
    nrf_drv_gpiote.o(i.pin_in_use_by_te) refers to nrf_drv_gpiote.o(.bss) for .bss
    nrf_drv_uart.o(i.UART0_IRQHandler) refers to nrf_drv_uart.o(i.uart_irq_handler) for uart_irq_handler
    nrf_drv_uart.o(i.nrf_drv_uart_init) refers to nrf_drv_uart.o(i.nrf_gpio_cfg_output) for nrf_gpio_cfg_output
    nrf_drv_uart.o(i.nrf_drv_uart_init) refers to nrf_drv_uart.o(i.nrf_gpio_cfg_input) for nrf_gpio_cfg_input
    nrf_drv_uart.o(i.nrf_drv_uart_init) refers to nrf_drv_common.o(i.nrf_drv_common_irq_enable) for nrf_drv_common_irq_enable
    nrf_drv_uart.o(i.nrf_drv_uart_init) refers to nrf_drv_uart.o(.bss) for .bss
    nrf_drv_uart.o(i.nrf_drv_uart_init) refers to nrf_drv_uart.o(.constdata) for .constdata
    nrf_drv_uart.o(i.nrf_drv_uart_rx) refers to nrf_drv_uart.o(i.nrf_drv_uart_rx_for_uart) for nrf_drv_uart_rx_for_uart
    nrf_drv_uart.o(i.nrf_drv_uart_rx) refers to nrf_drv_uart.o(.bss) for .bss
    nrf_drv_uart.o(i.nrf_drv_uart_rx_disable) refers to nrf_drv_uart.o(.bss) for .bss
    nrf_drv_uart.o(i.nrf_drv_uart_rx_enable) refers to nrf_drv_uart.o(i.rx_enable) for rx_enable
    nrf_drv_uart.o(i.nrf_drv_uart_rx_enable) refers to nrf_drv_uart.o(.bss) for .bss
    nrf_drv_uart.o(i.nrf_drv_uart_rx_for_uart) refers to nrf_drv_uart.o(i.rx_enable) for rx_enable
    nrf_drv_uart.o(i.nrf_drv_uart_rx_for_uart) refers to nrf_drv_uart.o(i.nrf_uart_event_check) for nrf_uart_event_check
    nrf_drv_uart.o(i.nrf_drv_uart_rx_for_uart) refers to nrf_drv_uart.o(i.rx_byte) for rx_byte
    nrf_drv_uart.o(i.nrf_drv_uart_rx_for_uart) refers to nrf_drv_uart.o(.bss) for .bss
    nrf_drv_uart.o(i.nrf_drv_uart_tx) refers to nrf_drv_uart.o(i.nrf_drv_uart_tx_for_uart) for nrf_drv_uart_tx_for_uart
    nrf_drv_uart.o(i.nrf_drv_uart_tx) refers to nrf_drv_uart.o(.bss) for .bss
    nrf_drv_uart.o(i.nrf_drv_uart_tx_abort) refers to nrf_drv_uart.o(i.tx_done_event) for tx_done_event
    nrf_drv_uart.o(i.nrf_drv_uart_tx_abort) refers to nrf_drv_uart.o(.bss) for .bss
    nrf_drv_uart.o(i.nrf_drv_uart_tx_for_uart) refers to nrf_drv_uart.o(i.tx_byte) for tx_byte
    nrf_drv_uart.o(i.nrf_drv_uart_tx_for_uart) refers to nrf_drv_uart.o(i.nrf_uart_event_check) for nrf_uart_event_check
    nrf_drv_uart.o(i.nrf_drv_uart_tx_for_uart) refers to nrf_drv_uart.o(.bss) for .bss
    nrf_drv_uart.o(i.nrf_drv_uart_uninit) refers to nrf_drv_uart.o(i.nrf_gpio_cfg_default) for nrf_gpio_cfg_default
    nrf_drv_uart.o(i.nrf_drv_uart_uninit) refers to nrf_drv_uart.o(.bss) for .bss
    nrf_drv_uart.o(i.nrf_gpio_cfg_default) refers to nrf_drv_uart.o(i.nrf_gpio_cfg) for nrf_gpio_cfg
    nrf_drv_uart.o(i.nrf_gpio_cfg_input) refers to nrf_drv_uart.o(i.nrf_gpio_cfg) for nrf_gpio_cfg
    nrf_drv_uart.o(i.nrf_gpio_cfg_output) refers to nrf_drv_uart.o(i.nrf_gpio_cfg) for nrf_gpio_cfg
    nrf_drv_uart.o(i.rx_byte) refers to nrf_drv_uart.o(.bss) for .bss
    nrf_drv_uart.o(i.rx_done_event) refers to nrf_drv_uart.o(.bss) for .bss
    nrf_drv_uart.o(i.tx_byte) refers to nrf_drv_uart.o(.bss) for .bss
    nrf_drv_uart.o(i.tx_done_event) refers to nrf_drv_uart.o(.bss) for .bss
    nrf_drv_uart.o(i.uart_irq_handler) refers to nrf_drv_uart.o(i.nrf_uart_int_enable_check) for nrf_uart_int_enable_check
    nrf_drv_uart.o(i.uart_irq_handler) refers to nrf_drv_uart.o(i.nrf_uart_event_check) for nrf_uart_event_check
    nrf_drv_uart.o(i.uart_irq_handler) refers to nrf_drv_uart.o(i.rx_byte) for rx_byte
    nrf_drv_uart.o(i.uart_irq_handler) refers to nrf_drv_uart.o(i.rx_done_event) for rx_done_event
    nrf_drv_uart.o(i.uart_irq_handler) refers to nrf_drv_uart.o(i.tx_byte) for tx_byte
    nrf_drv_uart.o(i.uart_irq_handler) refers to nrf_drv_uart.o(i.tx_done_event) for tx_done_event
    nrf_drv_uart.o(i.uart_irq_handler) refers to nrf_drv_uart.o(.bss) for .bss
    segger_rtt.o(i.SEGGER_RTT_ConfigDownBuffer) refers to segger_rtt.o(i._DoInit) for _DoInit
    segger_rtt.o(i.SEGGER_RTT_ConfigDownBuffer) refers to segger_rtt.o(.bss) for .bss
    segger_rtt.o(i.SEGGER_RTT_ConfigUpBuffer) refers to segger_rtt.o(i._DoInit) for _DoInit
    segger_rtt.o(i.SEGGER_RTT_ConfigUpBuffer) refers to segger_rtt.o(.bss) for .bss
    segger_rtt.o(i.SEGGER_RTT_GetKey) refers to segger_rtt.o(i.SEGGER_RTT_Read) for SEGGER_RTT_Read
    segger_rtt.o(i.SEGGER_RTT_HasData) refers to segger_rtt.o(.bss) for .bss
    segger_rtt.o(i.SEGGER_RTT_HasKey) refers to segger_rtt.o(i._DoInit) for _DoInit
    segger_rtt.o(i.SEGGER_RTT_HasKey) refers to segger_rtt.o(.bss) for .bss
    segger_rtt.o(i.SEGGER_RTT_Init) refers to segger_rtt.o(i._DoInit) for _DoInit
    segger_rtt.o(i.SEGGER_RTT_Init) refers to segger_rtt.o(.bss) for .bss
    segger_rtt.o(i.SEGGER_RTT_Read) refers to segger_rtt.o(i.SEGGER_RTT_ReadNoLock) for SEGGER_RTT_ReadNoLock
    segger_rtt.o(i.SEGGER_RTT_ReadNoLock) refers to segger_rtt.o(i._DoInit) for _DoInit
    segger_rtt.o(i.SEGGER_RTT_ReadNoLock) refers to memmovea.o(.text) for __aeabi_memcpy
    segger_rtt.o(i.SEGGER_RTT_ReadNoLock) refers to segger_rtt.o(.bss) for .bss
    segger_rtt.o(i.SEGGER_RTT_SetNameDownBuffer) refers to segger_rtt.o(i._DoInit) for _DoInit
    segger_rtt.o(i.SEGGER_RTT_SetNameDownBuffer) refers to segger_rtt.o(.bss) for .bss
    segger_rtt.o(i.SEGGER_RTT_SetNameUpBuffer) refers to segger_rtt.o(i._DoInit) for _DoInit
    segger_rtt.o(i.SEGGER_RTT_SetNameUpBuffer) refers to segger_rtt.o(.bss) for .bss
    segger_rtt.o(i.SEGGER_RTT_SetTerminal) refers to segger_rtt.o(i._DoInit) for _DoInit
    segger_rtt.o(i.SEGGER_RTT_SetTerminal) refers to segger_rtt.o(i._GetAvailWriteSpace) for _GetAvailWriteSpace
    segger_rtt.o(i.SEGGER_RTT_SetTerminal) refers to segger_rtt.o(i._WriteNoCheck) for _WriteNoCheck
    segger_rtt.o(i.SEGGER_RTT_SetTerminal) refers to segger_rtt.o(i._WriteBlocking) for _WriteBlocking
    segger_rtt.o(i.SEGGER_RTT_SetTerminal) refers to segger_rtt.o(.bss) for .bss
    segger_rtt.o(i.SEGGER_RTT_SetTerminal) refers to segger_rtt.o(.data) for .data
    segger_rtt.o(i.SEGGER_RTT_TerminalOut) refers to segger_rtt.o(i._DoInit) for _DoInit
    segger_rtt.o(i.SEGGER_RTT_TerminalOut) refers to strlen.o(.text) for strlen
    segger_rtt.o(i.SEGGER_RTT_TerminalOut) refers to segger_rtt.o(i._GetAvailWriteSpace) for _GetAvailWriteSpace
    segger_rtt.o(i.SEGGER_RTT_TerminalOut) refers to segger_rtt.o(i._PostTerminalSwitch) for _PostTerminalSwitch
    segger_rtt.o(i.SEGGER_RTT_TerminalOut) refers to segger_rtt.o(i._WriteBlocking) for _WriteBlocking
    segger_rtt.o(i.SEGGER_RTT_TerminalOut) refers to segger_rtt.o(.bss) for .bss
    segger_rtt.o(i.SEGGER_RTT_TerminalOut) refers to segger_rtt.o(.data) for .data
    segger_rtt.o(i.SEGGER_RTT_WaitKey) refers to segger_rtt.o(i.SEGGER_RTT_GetKey) for SEGGER_RTT_GetKey
    segger_rtt.o(i.SEGGER_RTT_Write) refers to segger_rtt.o(i._DoInit) for _DoInit
    segger_rtt.o(i.SEGGER_RTT_Write) refers to segger_rtt.o(i.SEGGER_RTT_WriteNoLock) for SEGGER_RTT_WriteNoLock
    segger_rtt.o(i.SEGGER_RTT_Write) refers to segger_rtt.o(.bss) for .bss
    segger_rtt.o(i.SEGGER_RTT_WriteNoLock) refers to segger_rtt.o(i._GetAvailWriteSpace) for _GetAvailWriteSpace
    segger_rtt.o(i.SEGGER_RTT_WriteNoLock) refers to segger_rtt.o(i._WriteNoCheck) for _WriteNoCheck
    segger_rtt.o(i.SEGGER_RTT_WriteNoLock) refers to segger_rtt.o(i._WriteBlocking) for _WriteBlocking
    segger_rtt.o(i.SEGGER_RTT_WriteNoLock) refers to segger_rtt.o(.bss) for .bss
    segger_rtt.o(i.SEGGER_RTT_WriteSkipNoLock) refers to memmovea.o(.text) for __aeabi_memcpy
    segger_rtt.o(i.SEGGER_RTT_WriteSkipNoLock) refers to segger_rtt.o(.bss) for .bss
    segger_rtt.o(i.SEGGER_RTT_WriteString) refers to strlen.o(.text) for strlen
    segger_rtt.o(i.SEGGER_RTT_WriteString) refers to segger_rtt.o(i.SEGGER_RTT_Write) for SEGGER_RTT_Write
    segger_rtt.o(i._DoInit) refers to strcpy.o(.text) for strcpy
    segger_rtt.o(i._DoInit) refers to segger_rtt.o(.bss) for .bss
    segger_rtt.o(i._PostTerminalSwitch) refers to segger_rtt.o(i._WriteBlocking) for _WriteBlocking
    segger_rtt.o(i._PostTerminalSwitch) refers to segger_rtt.o(.data) for .data
    segger_rtt.o(i._WriteBlocking) refers to memmovea.o(.text) for __aeabi_memcpy
    segger_rtt.o(i._WriteNoCheck) refers to memmovea.o(.text) for __aeabi_memcpy
    app_button.o(i.app_button_disable) refers to nrf_drv_gpiote.o(i.nrf_drv_gpiote_in_event_disable) for nrf_drv_gpiote_in_event_disable
    app_button.o(i.app_button_disable) refers to app_timer.o(i.app_timer_stop) for app_timer_stop
    app_button.o(i.app_button_disable) refers to app_button.o(.data) for .data
    app_button.o(i.app_button_disable) refers to app_button.o(.constdata) for .constdata
    app_button.o(i.app_button_enable) refers to nrf_drv_gpiote.o(i.nrf_drv_gpiote_in_event_enable) for nrf_drv_gpiote_in_event_enable
    app_button.o(i.app_button_enable) refers to app_button.o(.data) for .data
    app_button.o(i.app_button_init) refers to nrf_drv_gpiote.o(i.nrf_drv_gpiote_is_init) for nrf_drv_gpiote_is_init
    app_button.o(i.app_button_init) refers to nrf_drv_gpiote.o(i.nrf_drv_gpiote_init) for nrf_drv_gpiote_init
    app_button.o(i.app_button_init) refers to nrf_drv_gpiote.o(i.nrf_drv_gpiote_in_init) for nrf_drv_gpiote_in_init
    app_button.o(i.app_button_init) refers to app_timer.o(i.app_timer_create) for app_timer_create
    app_button.o(i.app_button_init) refers to app_button.o(.data) for .data
    app_button.o(i.app_button_init) refers to app_button.o(.constdata) for .constdata
    app_button.o(i.app_button_init) refers to app_button.o(i.gpiote_event_handler) for gpiote_event_handler
    app_button.o(i.app_button_init) refers to app_button.o(i.detection_delay_timeout_handler) for detection_delay_timeout_handler
    app_button.o(i.app_button_is_pushed) refers to nrf_drv_gpiote.o(i.nrf_drv_gpiote_in_is_set) for nrf_drv_gpiote_in_is_set
    app_button.o(i.app_button_is_pushed) refers to app_button.o(.data) for .data
    app_button.o(i.detection_delay_timeout_handler) refers to nrf_drv_gpiote.o(i.nrf_drv_gpiote_in_is_set) for nrf_drv_gpiote_in_is_set
    app_button.o(i.detection_delay_timeout_handler) refers to app_button.o(.data) for .data
    app_button.o(i.gpiote_event_handler) refers to app_timer.o(i.app_timer_stop) for app_timer_stop
    app_button.o(i.gpiote_event_handler) refers to nrf_drv_gpiote.o(i.nrf_drv_gpiote_in_is_set) for nrf_drv_gpiote_in_is_set
    app_button.o(i.gpiote_event_handler) refers to app_timer.o(i.app_timer_start) for app_timer_start
    app_button.o(i.gpiote_event_handler) refers to app_button.o(.constdata) for .constdata
    app_button.o(i.gpiote_event_handler) refers to app_button.o(.data) for .data
    app_button.o(.constdata) refers to app_button.o(.bss) for m_detection_delay_timer_id_data
    app_error.o(i.app_error_handler) refers to app_error.o(i.app_error_fault_handler) for app_error_fault_handler
    app_error.o(i.app_error_handler_bare) refers to app_error.o(i.app_error_fault_handler) for app_error_fault_handler
    app_error.o(i.app_error_save_and_stop) refers to app_error.o(.bss) for .bss
    app_timer.o(i.RTC1_IRQHandler) refers to app_timer.o(i.timer_timeouts_check) for timer_timeouts_check
    app_timer.o(i.SWI0_IRQHandler) refers to app_timer.o(i.timer_list_handler) for timer_list_handler
    app_timer.o(i.app_timer_create) refers to app_timer.o(.data) for .data
    app_timer.o(i.app_timer_init) refers to app_timer.o(i.rtc1_stop) for rtc1_stop
    app_timer.o(i.app_timer_init) refers to app_timer.o(i.NVIC_SetPriority) for NVIC_SetPriority
    app_timer.o(i.app_timer_init) refers to app_timer.o(.data) for .data
    app_timer.o(i.app_timer_start) refers to app_timer.o(i.user_id_get) for user_id_get
    app_timer.o(i.app_timer_start) refers to app_timer.o(i.user_op_alloc) for user_op_alloc
    app_timer.o(i.app_timer_start) refers to app_timer.o(i.timer_list_handler_sched) for timer_list_handler_sched
    app_timer.o(i.app_timer_start) refers to app_timer.o(.data) for .data
    app_timer.o(i.app_timer_stop) refers to app_timer.o(i.user_id_get) for user_id_get
    app_timer.o(i.app_timer_stop) refers to app_timer.o(i.user_op_alloc) for user_op_alloc
    app_timer.o(i.app_timer_stop) refers to app_timer.o(i.timer_list_handler_sched) for timer_list_handler_sched
    app_timer.o(i.app_timer_stop) refers to app_timer.o(.data) for .data
    app_timer.o(i.app_timer_stop_all) refers to app_timer.o(i.user_id_get) for user_id_get
    app_timer.o(i.app_timer_stop_all) refers to app_timer.o(i.user_op_alloc) for user_op_alloc
    app_timer.o(i.app_timer_stop_all) refers to app_timer.o(i.timer_list_handler_sched) for timer_list_handler_sched
    app_timer.o(i.app_timer_stop_all) refers to app_timer.o(.data) for .data
    app_timer.o(i.compare_reg_update) refers to app_timer.o(.emb_text) for __asm___11_app_timer_c_cd27f9c3__nrf_delay_us
    app_timer.o(i.compare_reg_update) refers to app_timer.o(i.rtc1_stop) for rtc1_stop
    app_timer.o(i.compare_reg_update) refers to app_timer.o(.data) for .data
    app_timer.o(i.elapsed_ticks_acquire) refers to app_timer.o(.data) for .data
    app_timer.o(i.list_deletions_handler) refers to app_timer.o(.data) for .data
    app_timer.o(i.list_insertions_handler) refers to app_timer.o(i.timer_list_insert) for timer_list_insert
    app_timer.o(i.list_insertions_handler) refers to app_timer.o(.data) for .data
    app_timer.o(i.rtc1_stop) refers to app_timer.o(.emb_text) for __asm___11_app_timer_c_cd27f9c3__nrf_delay_us
    app_timer.o(i.rtc1_stop) refers to app_timer.o(.data) for .data
    app_timer.o(i.timer_list_handler) refers to app_timer.o(i.elapsed_ticks_acquire) for elapsed_ticks_acquire
    app_timer.o(i.timer_list_handler) refers to app_timer.o(i.list_deletions_handler) for list_deletions_handler
    app_timer.o(i.timer_list_handler) refers to app_timer.o(i.list_insertions_handler) for list_insertions_handler
    app_timer.o(i.timer_list_handler) refers to app_timer.o(i.compare_reg_update) for compare_reg_update
    app_timer.o(i.timer_list_handler) refers to app_timer.o(.data) for .data
    app_timer.o(i.timer_list_insert) refers to app_timer.o(.data) for .data
    app_timer.o(i.timer_timeouts_check) refers to app_error.o(i.app_error_handler_bare) for app_error_handler_bare
    app_timer.o(i.timer_timeouts_check) refers to app_timer.o(i.timer_list_handler_sched) for timer_list_handler_sched
    app_timer.o(i.timer_timeouts_check) refers to app_timer.o(.data) for .data
    fds.o(i.app_notify) refers to fds.o(.bss) for .bss
    fds.o(i.chunk_queue_next) refers to fds.o(.bss) for .bss
    fds.o(i.cmd_queue_process) refers to main.o(i.__ARM_common_switch8) for __ARM_common_switch8
    fds.o(i.cmd_queue_process) refers to fds.o(i.init_execute) for init_execute
    fds.o(i.cmd_queue_process) refers to fds.o(i.store_execute) for store_execute
    fds.o(i.cmd_queue_process) refers to fds.o(i.gc_execute) for gc_execute
    fds.o(i.cmd_queue_process) refers to fds.o(i.app_notify) for app_notify
    fds.o(i.cmd_queue_process) refers to memseta.o(.text) for __aeabi_memclr4
    fds.o(i.cmd_queue_process) refers to fds.o(i.flag_clear) for flag_clear
    fds.o(i.cmd_queue_process) refers to fds.o(.bss) for .bss
    fds.o(i.cmd_queue_process_start) refers to fds.o(i.flag_is_set) for flag_is_set
    fds.o(i.cmd_queue_process_start) refers to fds.o(i.flag_set) for flag_set
    fds.o(i.cmd_queue_process_start) refers to fds.o(i.cmd_queue_process) for cmd_queue_process
    fds.o(i.fds_clear) refers to fds.o(i.flag_is_set) for flag_is_set
    fds.o(i.fds_clear) refers to fds.o(i.queue_reserve) for queue_reserve
    fds.o(i.fds_clear) refers to fds.o(i.cmd_queue_process_start) for cmd_queue_process_start
    fds.o(i.fds_clear_by_instance) refers to fds.o(i.flag_is_set) for flag_is_set
    fds.o(i.fds_clear_by_instance) refers to fds.o(i.queue_reserve) for queue_reserve
    fds.o(i.fds_clear_by_instance) refers to fds.o(i.cmd_queue_process_start) for cmd_queue_process_start
    fds.o(i.fds_close) refers to fds.o(i.page_id_within_bounds) for page_id_within_bounds
    fds.o(i.fds_close) refers to fds.o(.bss) for .bss
    fds.o(i.fds_find) refers to fds.o(i.find_record_by_key) for find_record_by_key
    fds.o(i.fds_find_by_instance) refers to fds.o(i.find_record_by_key) for find_record_by_key
    fds.o(i.fds_find_by_type) refers to fds.o(i.find_record_by_key) for find_record_by_key
    fds.o(i.fds_gc) refers to fds.o(i.flag_is_set) for flag_is_set
    fds.o(i.fds_gc) refers to fds.o(i.queue_reserve) for queue_reserve
    fds.o(i.fds_gc) refers to fds.o(i.cmd_queue_process_start) for cmd_queue_process_start
    fds.o(i.fds_gc) refers to fds.o(.bss) for .bss
    fds.o(i.fds_init) refers to fds.o(i.flag_is_set) for flag_is_set
    fds.o(i.fds_init) refers to fds.o(i.app_notify) for app_notify
    fds.o(i.fds_init) refers to fstorage.o(i.fs_init) for fs_init
    fds.o(i.fds_init) refers to fds.o(i.flag_set) for flag_set
    fds.o(i.fds_init) refers to fds.o(i.pages_init) for pages_init
    fds.o(i.fds_init) refers to fds.o(i.queue_reserve) for queue_reserve
    fds.o(i.fds_init) refers to main.o(i.__ARM_common_switch8) for __ARM_common_switch8
    fds.o(i.fds_init) refers to fds.o(i.flag_clear) for flag_clear
    fds.o(i.fds_init) refers to fds.o(i.cmd_queue_process_start) for cmd_queue_process_start
    fds.o(i.fds_open) refers to fds.o(i.page_id_within_bounds) for page_id_within_bounds
    fds.o(i.fds_open) refers to fds.o(i.find_record) for find_record
    fds.o(i.fds_open) refers to fds.o(i.header_is_valid) for header_is_valid
    fds.o(i.fds_open) refers to fds.o(.bss) for .bss
    fds.o(i.fds_register) refers to fds.o(.data) for .data
    fds.o(i.fds_register) refers to fds.o(.bss) for .bss
    fds.o(i.fds_reserve) refers to fds.o(i.flag_is_set) for flag_is_set
    fds.o(i.fds_reserve) refers to fds.o(i.write_space_reserve) for write_space_reserve
    fds.o(i.fds_reserve_cancel) refers to fds.o(i.flag_is_set) for flag_is_set
    fds.o(i.fds_reserve_cancel) refers to fds.o(i.page_id_within_bounds) for page_id_within_bounds
    fds.o(i.fds_reserve_cancel) refers to fds.o(.bss) for .bss
    fds.o(i.fds_update) refers to fds.o(i.write_enqueue) for write_enqueue
    fds.o(i.fds_write) refers to fds.o(i.write_enqueue) for write_enqueue
    fds.o(i.fds_write_reserved) refers to fds.o(i.write_enqueue) for write_enqueue
    fds.o(i.find_next_valid) refers to fds.o(i.header_is_valid) for header_is_valid
    fds.o(i.find_next_valid) refers to fds.o(.bss) for .bss
    fds.o(i.find_record) refers to fds.o(i.page_id_within_bounds) for page_id_within_bounds
    fds.o(i.find_record) refers to fds.o(i.find_next_valid) for find_next_valid
    fds.o(i.find_record) refers to fds.o(.bss) for .bss
    fds.o(i.find_record_by_key) refers to fds.o(i.flag_is_set) for flag_is_set
    fds.o(i.find_record_by_key) refers to fds.o(i.find_next_valid) for find_next_valid
    fds.o(i.find_record_by_key) refers to fds.o(fs_data) for fs_data
    fds.o(i.find_record_by_key) refers to fds.o(.bss) for .bss
    fds.o(i.flag_clear) refers to fds.o(.data) for .data
    fds.o(i.flag_is_set) refers to fds.o(.data) for .data
    fds.o(i.flag_set) refers to fds.o(.data) for .data
    fds.o(i.fs_callback) refers to fds.o(i.cmd_queue_process) for cmd_queue_process
    fds.o(i.gc_copy_record) refers to fds.o(i.find_next_valid) for find_next_valid
    fds.o(i.gc_copy_record) refers to fstorage.o(i.fs_store) for fs_store
    fds.o(i.gc_copy_record) refers to fds.o(i.gc_swap) for gc_swap
    fds.o(i.gc_copy_record) refers to fds.o(.bss) for .bss
    fds.o(i.gc_copy_record) refers to fds.o(.data) for .data
    fds.o(i.gc_copy_record) refers to fds.o(fs_data) for fs_data
    fds.o(i.gc_erase_swap) refers to fstorage.o(i.fs_erase) for fs_erase
    fds.o(i.gc_erase_swap) refers to fds.o(.bss) for .bss
    fds.o(i.gc_erase_swap) refers to fds.o(.data) for .data
    fds.o(i.gc_erase_swap) refers to fds.o(fs_data) for fs_data
    fds.o(i.gc_execute) refers to main.o(i.__ARM_common_switch8) for __ARM_common_switch8
    fds.o(i.gc_execute) refers to fds.o(i.gc_copy_record) for gc_copy_record
    fds.o(i.gc_execute) refers to fds.o(i.gc_erase_swap) for gc_erase_swap
    fds.o(i.gc_execute) refers to fds.o(i.page_tag_write_valid) for page_tag_write_valid
    fds.o(i.gc_execute) refers to fds.o(i.page_tag_write_swap) for page_tag_write_swap
    fds.o(i.gc_execute) refers to fds.o(.bss) for .bss
    fds.o(i.gc_swap) refers to fds.o(i.gc_erase_swap) for gc_erase_swap
    fds.o(i.gc_swap) refers to fstorage.o(i.fs_erase) for fs_erase
    fds.o(i.gc_swap) refers to fds.o(.bss) for .bss
    fds.o(i.gc_swap) refers to fds.o(.data) for .data
    fds.o(i.gc_swap) refers to fds.o(fs_data) for fs_data
    fds.o(i.init_execute) refers to fds.o(i.page_tag_write_swap) for page_tag_write_swap
    fds.o(i.init_execute) refers to fstorage.o(i.fs_erase) for fs_erase
    fds.o(i.init_execute) refers to fds.o(i.page_tag_write_valid) for page_tag_write_valid
    fds.o(i.init_execute) refers to fds.o(i.flag_set) for flag_set
    fds.o(i.init_execute) refers to fds.o(i.flag_clear) for flag_clear
    fds.o(i.init_execute) refers to fds.o(.bss) for .bss
    fds.o(i.init_execute) refers to fds.o(.data) for .data
    fds.o(i.init_execute) refers to fds.o(fs_data) for fs_data
    fds.o(i.page_scan) refers to fds.o(i.header_is_valid) for header_is_valid
    fds.o(i.page_scan) refers to fds.o(.data) for .data
    fds.o(i.page_tag_write_swap) refers to fstorage.o(i.fs_store) for fs_store
    fds.o(i.page_tag_write_swap) refers to fds.o(.data) for .data
    fds.o(i.page_tag_write_swap) refers to fds.o(.constdata) for .constdata
    fds.o(i.page_tag_write_swap) refers to fds.o(fs_data) for fs_data
    fds.o(i.page_tag_write_valid) refers to fstorage.o(i.fs_store) for fs_store
    fds.o(i.page_tag_write_valid) refers to fds.o(.constdata) for .constdata
    fds.o(i.page_tag_write_valid) refers to fds.o(fs_data) for fs_data
    fds.o(i.pages_init) refers to fds.o(i.page_scan) for page_scan
    fds.o(i.pages_init) refers to fds.o(fs_data) for fs_data
    fds.o(i.pages_init) refers to fds.o(.data) for .data
    fds.o(i.pages_init) refers to fds.o(.bss) for .bss
    fds.o(i.queue_reserve) refers to fds.o(.bss) for .bss
    fds.o(i.store_execute) refers to fds.o(i.update_page_offsets) for update_page_offsets
    fds.o(i.store_execute) refers to main.o(i.__ARM_common_switch8) for __ARM_common_switch8
    fds.o(i.store_execute) refers to fstorage.o(i.fs_store) for fs_store
    fds.o(i.store_execute) refers to fds.o(i.find_record) for find_record
    fds.o(i.store_execute) refers to fds.o(i.find_record_by_key) for find_record_by_key
    fds.o(i.store_execute) refers to fds.o(i.write_chunks) for write_chunks
    fds.o(i.store_execute) refers to fds.o(.bss) for .bss
    fds.o(i.store_execute) refers to fds.o(fs_data) for fs_data
    fds.o(i.store_execute) refers to fds.o(.constdata) for .constdata
    fds.o(i.write_chunks) refers to fstorage.o(i.fs_store) for fs_store
    fds.o(i.write_chunks) refers to fds.o(.bss) for .bss
    fds.o(i.write_chunks) refers to fds.o(fs_data) for fs_data
    fds.o(i.write_enqueue) refers to fds.o(i.flag_is_set) for flag_is_set
    fds.o(i.write_enqueue) refers to fds.o(i.queue_reserve) for queue_reserve
    fds.o(i.write_enqueue) refers to fds.o(i.write_space_reserve) for write_space_reserve
    fds.o(i.write_enqueue) refers to fds.o(i.chunk_queue_next) for chunk_queue_next
    fds.o(i.write_enqueue) refers to fds.o(i.cmd_queue_process_start) for cmd_queue_process_start
    fds.o(i.write_enqueue) refers to fds.o(.data) for .data
    fds.o(i.write_enqueue) refers to fds.o(.bss) for .bss
    fds.o(i.write_space_reserve) refers to fds.o(.bss) for .bss
    fds.o(fs_data) refers to fds.o(i.fs_callback) for fs_callback
    fstorage.o(i.cmd_enqueue) refers to memseta.o(.text) for __aeabi_memclr4
    fstorage.o(i.cmd_enqueue) refers to memmovea.o(.text) for __aeabi_memcpy4
    fstorage.o(i.cmd_enqueue) refers to fstorage.o(i.queue_process) for queue_process
    fstorage.o(i.cmd_enqueue) refers to fstorage.o(.bss) for .bss
    fstorage.o(i.cmd_enqueue) refers to fstorage.o(.data) for .data
    fstorage.o(i.fs_erase) refers to fstorage.o(i.check_config) for check_config
    fstorage.o(i.fs_erase) refers to fstorage.o(i.cmd_enqueue) for cmd_enqueue
    fstorage.o(i.fs_erase) refers to fstorage.o(.data) for .data
    fstorage.o(i.fs_init) refers to fstorage.o(.data) for .data
    fstorage.o(i.fs_store) refers to fstorage.o(i.check_config) for check_config
    fstorage.o(i.fs_store) refers to fstorage.o(i.cmd_enqueue) for cmd_enqueue
    fstorage.o(i.fs_store) refers to fstorage.o(.data) for .data
    fstorage.o(i.fs_sys_event_handler) refers to fstorage.o(i.app_notify) for app_notify
    fstorage.o(i.fs_sys_event_handler) refers to fstorage.o(i.queue_advance) for queue_advance
    fstorage.o(i.fs_sys_event_handler) refers to fstorage.o(i.queue_process) for queue_process
    fstorage.o(i.fs_sys_event_handler) refers to fstorage.o(.bss) for .bss
    fstorage.o(i.fs_sys_event_handler) refers to fstorage.o(.data) for .data
    fstorage.o(i.queue_advance) refers to fstorage.o(.bss) for .bss
    fstorage.o(i.queue_advance) refers to fstorage.o(.data) for .data
    fstorage.o(i.queue_process) refers to fstorage.o(i.app_notify) for app_notify
    fstorage.o(i.queue_process) refers to fstorage.o(.bss) for .bss
    fstorage.o(i.queue_process) refers to fstorage.o(.data) for .data
    nrf_log.o(i.log_hex) refers to nrf_log.o(.bss) for .bss
    nrf_log.o(i.log_hex_char) refers to nrf_log.o(.data) for .data
    nrf_log.o(i.log_uart_init) refers to app_uart.o(i.app_uart_init) for app_uart_init
    nrf_log.o(i.log_uart_init) refers to nrf_log.o(.data) for .data
    nrf_log.o(i.log_uart_init) refers to nrf_log.o(.constdata) for .constdata
    nrf_log.o(i.log_uart_init) refers to nrf_log.o(.bss) for .bss
    nrf_log.o(i.log_uart_init) refers to nrf_log.o(i.uart_error_cb) for uart_error_cb
    nrf_log.o(i.log_uart_printf) refers to printfa.o(i.__0vprintf) for vprintf
    nrf_log.o(i.log_uart_write_hex) refers to app_uart.o(i.app_uart_put) for app_uart_put
    nrf_log.o(i.log_uart_write_hex_char) refers to app_uart.o(i.app_uart_put) for app_uart_put
    nrf_log.o(i.uart_error_cb) refers to app_error.o(i.app_error_handler_bare) for app_error_handler_bare
    retarget.o(i.fgetc) refers to app_uart.o(i.app_uart_get) for app_uart_get
    retarget.o(i.fputc) refers to app_uart.o(i.app_uart_put) for app_uart_put
    sdk_mapped_flags.o(i.sdk_mapped_flags_first_key_index_get) refers to sdk_mapped_flags.o(i.sdk_mapped_flags_get_by_index) for sdk_mapped_flags_get_by_index
    sdk_mapped_flags.o(i.sdk_mapped_flags_get_by_key) refers to sdk_mapped_flags.o(i.sdk_mapped_flags_get_by_index) for sdk_mapped_flags_get_by_index
    sdk_mapped_flags.o(i.sdk_mapped_flags_key_list_get) refers to sdk_mapped_flags.o(i.sdk_mapped_flags_get_by_index) for sdk_mapped_flags_get_by_index
    sdk_mapped_flags.o(i.sdk_mapped_flags_key_list_get) refers to memmovea.o(.text) for __aeabi_memcpy4
    sdk_mapped_flags.o(i.sdk_mapped_flags_n_flags_set) refers to sdk_mapped_flags.o(i.sdk_mapped_flags_get_by_index) for sdk_mapped_flags_get_by_index
    sdk_mapped_flags.o(i.sdk_mapped_flags_update_by_key) refers to sdk_mapped_flags.o(i.sdk_mapped_flags_bulk_update_by_key) for sdk_mapped_flags_bulk_update_by_key
    softdevice_handler.o(i.SWI2_IRQHandler) refers to app_error.o(i.app_error_handler_bare) for app_error_handler_bare
    softdevice_handler.o(i.SWI2_IRQHandler) refers to softdevice_handler.o(i.intern_softdevice_events_execute) for intern_softdevice_events_execute
    softdevice_handler.o(i.SWI2_IRQHandler) refers to softdevice_handler.o(.data) for .data
    softdevice_handler.o(i.intern_softdevice_events_execute) refers to app_error.o(i.app_error_handler_bare) for app_error_handler_bare
    softdevice_handler.o(i.intern_softdevice_events_execute) refers to softdevice_handler.o(.data) for .data
    softdevice_handler.o(i.softdevice_ble_evt_handler_set) refers to softdevice_handler.o(.data) for .data
    softdevice_handler.o(i.softdevice_enable_get_default_config) refers to memseta.o(.text) for __aeabi_memclr4
    softdevice_handler.o(i.softdevice_fault_handler) refers to app_error.o(i.app_error_fault_handler) for app_error_fault_handler
    softdevice_handler.o(i.softdevice_handler_init) refers to softdevice_handler.o(.data) for .data
    softdevice_handler.o(i.softdevice_handler_init) refers to softdevice_handler.o(i.softdevice_fault_handler) for softdevice_fault_handler
    softdevice_handler.o(i.softdevice_handler_isEnabled) refers to softdevice_handler.o(.data) for .data
    softdevice_handler.o(i.softdevice_handler_sd_disable) refers to softdevice_handler.o(.data) for .data
    softdevice_handler.o(i.softdevice_sys_evt_handler_set) refers to softdevice_handler.o(.data) for .data
    entry.o(.ARM.Collect$$$$00000000) refers (Special) to entry10a.o(.ARM.Collect$$$$0000000D) for __rt_final_cpp
    entry.o(.ARM.Collect$$$$00000000) refers (Special) to entry11a.o(.ARM.Collect$$$$0000000F) for __rt_final_exit
    entry.o(.ARM.Collect$$$$00000000) refers (Special) to entry7b.o(.ARM.Collect$$$$00000008) for _main_clock
    entry.o(.ARM.Collect$$$$00000000) refers (Special) to entry8b.o(.ARM.Collect$$$$0000000A) for _main_cpp_init
    entry.o(.ARM.Collect$$$$00000000) refers (Special) to entry9a.o(.ARM.Collect$$$$0000000B) for _main_init
    entry.o(.ARM.Collect$$$$00000000) refers (Special) to entry5.o(.ARM.Collect$$$$00000004) for _main_scatterload
    entry.o(.ARM.Collect$$$$00000000) refers (Special) to entry2.o(.ARM.Collect$$$$00000001) for _main_stk
    idiv.o(.text) refers to uidiv.o(.text) for __aeabi_uidivmod
    printfa.o(i.__0fprintf) refers (Special) to iusefp.o(.text) for __I$use$fp
    printfa.o(i.__0fprintf) refers to printfa.o(i._printf_core) for _printf_core
    printfa.o(i.__0fprintf) refers to retarget.o(i.fputc) for fputc
    printfa.o(i.__0printf) refers (Special) to iusefp.o(.text) for __I$use$fp
    printfa.o(i.__0printf) refers to printfa.o(i._printf_core) for _printf_core
    printfa.o(i.__0printf) refers to retarget.o(i.fputc) for fputc
    printfa.o(i.__0printf) refers to retarget.o(.data) for __stdout
    printfa.o(i.__0snprintf) refers (Special) to iusefp.o(.text) for __I$use$fp
    printfa.o(i.__0snprintf) refers to printfa.o(i._printf_core) for _printf_core
    printfa.o(i.__0snprintf) refers to printfa.o(i._snputc) for _snputc
    printfa.o(i.__0sprintf) refers (Special) to iusefp.o(.text) for __I$use$fp
    printfa.o(i.__0sprintf) refers to printfa.o(i._printf_core) for _printf_core
    printfa.o(i.__0sprintf) refers to printfa.o(i._sputc) for _sputc
    printfa.o(i.__0vfprintf) refers (Special) to iusefp.o(.text) for __I$use$fp
    printfa.o(i.__0vfprintf) refers to printfa.o(i._printf_core) for _printf_core
    printfa.o(i.__0vfprintf) refers to retarget.o(i.fputc) for fputc
    printfa.o(i.__0vprintf) refers (Special) to iusefp.o(.text) for __I$use$fp
    printfa.o(i.__0vprintf) refers to printfa.o(i._printf_core) for _printf_core
    printfa.o(i.__0vprintf) refers to retarget.o(i.fputc) for fputc
    printfa.o(i.__0vprintf) refers to retarget.o(.data) for __stdout
    printfa.o(i.__0vsnprintf) refers (Special) to iusefp.o(.text) for __I$use$fp
    printfa.o(i.__0vsnprintf) refers to printfa.o(i._printf_core) for _printf_core
    printfa.o(i.__0vsnprintf) refers to printfa.o(i._snputc) for _snputc
    printfa.o(i.__0vsprintf) refers (Special) to iusefp.o(.text) for __I$use$fp
    printfa.o(i.__0vsprintf) refers to printfa.o(i._printf_core) for _printf_core
    printfa.o(i.__0vsprintf) refers to printfa.o(i._sputc) for _sputc
    printfa.o(i._fp_digits) refers (Special) to iusefp.o(.text) for __I$use$fp
    printfa.o(i._fp_digits) refers to dmul.o(.text) for __aeabi_dmul
    printfa.o(i._fp_digits) refers to ddiv.o(.text) for __aeabi_ddiv
    printfa.o(i._fp_digits) refers to cdrcmple.o(.text) for __aeabi_cdrcmple
    printfa.o(i._fp_digits) refers to dadd.o(.text) for __aeabi_dadd
    printfa.o(i._fp_digits) refers to dfixul.o(.text) for __aeabi_d2ulz
    printfa.o(i._fp_digits) refers to uldiv.o(.text) for __aeabi_uldivmod
    printfa.o(i._printf_core) refers (Special) to iusefp.o(.text) for __I$use$fp
    printfa.o(i._printf_core) refers to printfa.o(i._printf_pre_padding) for _printf_pre_padding
    printfa.o(i._printf_core) refers to uldiv.o(.text) for __aeabi_uldivmod
    printfa.o(i._printf_core) refers to printfa.o(i._printf_post_padding) for _printf_post_padding
    printfa.o(i._printf_core) refers to printfa.o(i._fp_digits) for _fp_digits
    printfa.o(i._printf_core) refers to uidiv.o(.text) for __aeabi_uidivmod
    printfa.o(i._printf_post_padding) refers (Special) to iusefp.o(.text) for __I$use$fp
    printfa.o(i._printf_pre_padding) refers (Special) to iusefp.o(.text) for __I$use$fp
    printfa.o(i._snputc) refers (Special) to iusefp.o(.text) for __I$use$fp
    printfa.o(i._sputc) refers (Special) to iusefp.o(.text) for __I$use$fp
    entry2.o(.ARM.Collect$$$$00000001) refers to entry2.o(.ARM.Collect$$$$00002712) for __lit__00000000
    entry2.o(.ARM.Collect$$$$00002712) refers to arm_startup_nrf51.o(STACK) for __initial_sp
    entry2.o(__vectab_stack_and_reset_area) refers to arm_startup_nrf51.o(STACK) for __initial_sp
    entry2.o(__vectab_stack_and_reset_area) refers to entry.o(.ARM.Collect$$$$00000000) for __main
    entry5.o(.ARM.Collect$$$$00000004) refers to init.o(.text) for __scatterload
    entry9a.o(.ARM.Collect$$$$0000000B) refers to main.o(i.main) for main
    entry9b.o(.ARM.Collect$$$$0000000C) refers to main.o(i.main) for main
    uldiv.o(.text) refers to llushr.o(.text) for __aeabi_llsr
    uldiv.o(.text) refers to llshl.o(.text) for __aeabi_llsl
    dadd.o(.text) refers to llshl.o(.text) for __aeabi_llsl
    dadd.o(.text) refers to llsshr.o(.text) for __aeabi_lasr
    dadd.o(.text) refers to depilogue.o(.text) for _double_epilogue
    dmul.o(.text) refers to depilogue.o(.text) for _double_epilogue
    ddiv.o(.text) refers to depilogue.o(.text) for _double_round
    dfixul.o(.text) refers to llushr.o(.text) for __aeabi_llsr
    dfixul.o(.text) refers to llshl.o(.text) for __aeabi_llsl
    init.o(.text) refers to entry5.o(.ARM.Collect$$$$00000004) for __main_after_scatterload
    depilogue.o(.text) refers to depilogue.o(i.__ARM_clz) for __ARM_clz
    depilogue.o(.text) refers to llshl.o(.text) for __aeabi_llsl
    depilogue.o(.text) refers to llushr.o(.text) for __aeabi_llsr
    nrf_log.o(i.log_uart_write_string) refers to app_uart.o(i.app_uart_put) for app_uart_put
    nrf_log.o(i.log_uart_write_string_many) refers to nrf_log.o(i.log_uart_write_string) for log_uart_write_string


==============================================================================

Removing Unused input sections from the image.

    Removing main.o(.rev16_text), (4 bytes).
    Removing main.o(.revsh_text), (4 bytes).
    Removing main.o(i.assert_nrf_callback), (20 bytes).
    Removing bsp.o(.rev16_text), (4 bytes).
    Removing bsp.o(.revsh_text), (4 bytes).
    Removing bsp.o(i.bsp_buttons_disable), (8 bytes).
    Removing bsp.o(i.bsp_buttons_enable), (8 bytes).
    Removing bsp.o(i.bsp_buttons_state_get), (60 bytes).
    Removing bsp.o(i.bsp_indication_set), (28 bytes).
    Removing bsp.o(i.bsp_indication_text_set), (8 bytes).
    Removing bsp.o(i.bsp_wakeup_buttons_set), (60 bytes).
    Removing bsp_btn_ble.o(.rev16_text), (4 bytes).
    Removing bsp_btn_ble.o(.revsh_text), (4 bytes).
    Removing bsp_btn_ble.o(i.bsp_btn_ble_on_ble_evt), (120 bytes).
    Removing bsp_btn_ble.o(i.bsp_btn_ble_sleep_mode_prepare), (20 bytes).
    Removing arm_startup_nrf51.o(HEAP), (0 bytes).
    Removing system_nrf51.o(.rev16_text), (4 bytes).
    Removing system_nrf51.o(.revsh_text), (4 bytes).
    Removing system_nrf51.o(i.SystemCoreClockUpdate), (16 bytes).
    Removing ble_advdata.o(.rev16_text), (4 bytes).
    Removing ble_advdata.o(.revsh_text), (4 bytes).
    Removing ble_advertising.o(.rev16_text), (4 bytes).
    Removing ble_advertising.o(.revsh_text), (4 bytes).
    Removing ble_advertising.o(i.ble_advertising_peer_addr_reply), (48 bytes).
    Removing ble_advertising.o(i.ble_advertising_restart_without_whitelist), (64 bytes).
    Removing ble_advertising.o(i.ble_advertising_whitelist_reply), (84 bytes).
    Removing ble_conn_params.o(.rev16_text), (4 bytes).
    Removing ble_conn_params.o(.revsh_text), (4 bytes).
    Removing ble_conn_params.o(i.ble_conn_params_change_conn_params), (80 bytes).
    Removing ble_conn_params.o(i.ble_conn_params_stop), (16 bytes).
    Removing ble_conn_state.o(.rev16_text), (4 bytes).
    Removing ble_conn_state.o(.revsh_text), (4 bytes).
    Removing ble_conn_state.o(i.bcs_internal_state_reset), (16 bytes).
    Removing ble_conn_state.o(i.ble_conn_state_central_handles), (24 bytes).
    Removing ble_conn_state.o(i.ble_conn_state_init), (8 bytes).
    Removing ble_conn_state.o(i.ble_conn_state_n_connections), (16 bytes).
    Removing ble_conn_state.o(i.ble_conn_state_n_peripherals), (20 bytes).
    Removing ble_conn_state.o(i.ble_conn_state_periph_handles), (24 bytes).
    Removing ble_conn_state.o(i.ble_conn_state_status), (52 bytes).
    Removing ble_conn_state.o(i.ble_conn_state_valid), (20 bytes).
    Removing ble_db_discovery.o(.rev16_text), (4 bytes).
    Removing ble_db_discovery.o(.revsh_text), (4 bytes).
    Removing ble_db_discovery.o(i.ble_db_discovery_close), (20 bytes).
    Removing gatt_cache_manager.o(.rev16_text), (4 bytes).
    Removing gatt_cache_manager.o(.revsh_text), (4 bytes).
    Removing gatt_cache_manager.o(i.gcm_local_db_cache_get), (24 bytes).
    Removing gatt_cache_manager.o(i.gcm_local_db_cache_set), (24 bytes).
    Removing gatt_cache_manager.o(i.gcm_local_db_cache_update), (52 bytes).
    Removing gatt_cache_manager.o(i.gcm_remote_db_retrieve), (32 bytes).
    Removing gatt_cache_manager.o(i.gcm_remote_db_store), (24 bytes).
    Removing gattc_cache_manager.o(.rev16_text), (4 bytes).
    Removing gattc_cache_manager.o(.revsh_text), (4 bytes).
    Removing gattc_cache_manager.o(i.gccm_remote_db_retrieve), (48 bytes).
    Removing gattc_cache_manager.o(i.gccm_remote_db_store), (48 bytes).
    Removing gatts_cache_manager.o(.rev16_text), (4 bytes).
    Removing gatts_cache_manager.o(.revsh_text), (4 bytes).
    Removing gatts_cache_manager.o(i.gscm_local_db_cache_get), (36 bytes).
    Removing gatts_cache_manager.o(i.gscm_local_db_cache_set), (40 bytes).
    Removing id_manager.o(.rev16_text), (4 bytes).
    Removing id_manager.o(.revsh_text), (4 bytes).
    Removing id_manager.o(i.im_peer_id_get_by_irk_match_idx), (36 bytes).
    Removing id_manager.o(i.im_wlist_create), (268 bytes).
    Removing id_manager.o(i.im_wlist_set), (168 bytes).
    Removing peer_data.o(.rev16_text), (4 bytes).
    Removing peer_data.o(.revsh_text), (4 bytes).
    Removing peer_data.o(i.peer_data_deserialize), (162 bytes).
    Removing peer_data_storage.o(.rev16_text), (4 bytes).
    Removing peer_data_storage.o(.revsh_text), (4 bytes).
    Removing peer_data_storage.o(i.pds_n_peers), (36 bytes).
    Removing peer_data_storage.o(i.pds_peer_data_lock), (28 bytes).
    Removing peer_data_storage.o(i.pds_peer_data_read), (100 bytes).
    Removing peer_data_storage.o(i.pds_peer_data_verify), (28 bytes).
    Removing peer_database.o(.rev16_text), (4 bytes).
    Removing peer_database.o(.revsh_text), (4 bytes).
    Removing peer_database.o(i.pdb_n_peers), (20 bytes).
    Removing peer_database.o(i.pdb_raw_read), (28 bytes).
    Removing peer_id.o(.rev16_text), (4 bytes).
    Removing peer_id.o(.revsh_text), (4 bytes).
    Removing peer_id.o(i.peer_id_n_ids), (32 bytes).
    Removing peer_manager.o(.rev16_text), (4 bytes).
    Removing peer_manager.o(.revsh_text), (4 bytes).
    Removing peer_manager.o(i.pm_conn_handle_get), (20 bytes).
    Removing peer_manager.o(i.pm_link_status_get), (108 bytes).
    Removing peer_manager.o(i.pm_n_peers), (8 bytes).
    Removing peer_manager.o(i.pm_next_peer_id_get), (8 bytes).
    Removing peer_manager.o(i.pm_peer_data_clear), (36 bytes).
    Removing peer_manager.o(i.pm_peer_data_get), (8 bytes).
    Removing peer_manager.o(i.pm_peer_data_store), (8 bytes).
    Removing peer_manager.o(i.pm_peer_delete), (8 bytes).
    Removing peer_manager.o(i.pm_peer_id_get), (20 bytes).
    Removing peer_manager.o(i.pm_peer_new), (80 bytes).
    Removing peer_manager.o(i.pm_sec_params_reply), (4 bytes).
    Removing peer_manager.o(i.pm_wlist_create), (8 bytes).
    Removing peer_manager.o(i.pm_wlist_set), (8 bytes).
    Removing pm_mutex.o(.rev16_text), (4 bytes).
    Removing pm_mutex.o(.revsh_text), (4 bytes).
    Removing security_dispatcher.o(.rev16_text), (4 bytes).
    Removing security_dispatcher.o(.revsh_text), (4 bytes).
    Removing security_manager.o(.rev16_text), (4 bytes).
    Removing security_manager.o(.revsh_text), (4 bytes).
    Removing security_manager.o(i.sm_sec_params_reply), (20 bytes).
    Removing ble_hrs.o(.rev16_text), (4 bytes).
    Removing ble_hrs.o(.revsh_text), (4 bytes).
    Removing ble_hrs.o(i.ble_hrs_body_sensor_location_set), (30 bytes).
    Removing ble_hrs.o(i.ble_hrs_rr_interval_add), (46 bytes).
    Removing ble_hrs.o(i.ble_hrs_rr_interval_buffer_is_full), (16 bytes).
    Removing ble_hrs.o(i.ble_hrs_sensor_contact_detected_update), (6 bytes).
    Removing ble_hrs.o(i.ble_hrs_sensor_contact_supported_set), (24 bytes).
    Removing ble_hrs_c.o(.rev16_text), (4 bytes).
    Removing ble_hrs_c.o(.revsh_text), (4 bytes).
    Removing ble_rscs.o(.rev16_text), (4 bytes).
    Removing ble_rscs.o(.revsh_text), (4 bytes).
    Removing ble_rscs_c.o(.rev16_text), (4 bytes).
    Removing ble_rscs_c.o(.revsh_text), (4 bytes).
    Removing ble_srv_common.o(.rev16_text), (4 bytes).
    Removing ble_srv_common.o(.revsh_text), (4 bytes).
    Removing ble_srv_common.o(i.ble_srv_ascii_to_utf8), (18 bytes).
    Removing ble_srv_common.o(i.ble_srv_report_ref_encode), (12 bytes).
    Removing ble_srv_common.o(i.characteristic_add), (400 bytes).
    Removing ble_srv_common.o(i.descriptor_add), (176 bytes).
    Removing ble_srv_common.o(i.set_security_req), (46 bytes).
    Removing app_uart.o(.rev16_text), (4 bytes).
    Removing app_uart.o(.revsh_text), (4 bytes).
    Removing app_uart.o(i.app_uart_close), (10 bytes).
    Removing app_uart.o(i.app_uart_flush), (4 bytes).
    Removing app_uart.o(i.app_uart_get), (32 bytes).
    Removing app_uart.o(i.app_uart_put), (36 bytes).
    Removing pstorage.o(.rev16_text), (4 bytes).
    Removing pstorage.o(.revsh_text), (4 bytes).
    Removing pstorage.o(i.app_notify), (44 bytes).
    Removing pstorage.o(i.app_notify_error_state_transit), (32 bytes).
    Removing pstorage.o(i.clear_operation_execute), (260 bytes).
    Removing pstorage.o(i.clear_post_processing_run), (36 bytes).
    Removing pstorage.o(i.cmd_process), (56 bytes).
    Removing pstorage.o(i.cmd_queue_element_init), (32 bytes).
    Removing pstorage.o(i.cmd_queue_enqueue), (76 bytes).
    Removing pstorage.o(i.command_end_procedure_run), (60 bytes).
    Removing pstorage.o(i.data_page_erase_state_run), (84 bytes).
    Removing pstorage.o(i.data_to_swap_write_state_run), (40 bytes).
    Removing pstorage.o(i.flash_api_err_code_process), (32 bytes).
    Removing pstorage.o(i.flash_operation_success_run), (128 bytes).
    Removing pstorage.o(i.flash_page_erase), (10 bytes).
    Removing pstorage.o(i.flash_write), (10 bytes).
    Removing pstorage.o(i.head_restore_state_run), (120 bytes).
    Removing pstorage.o(i.is_page_erase_required), (68 bytes).
    Removing pstorage.o(i.is_word_aligned), (12 bytes).
    Removing pstorage.o(i.main_state_err_busy_process), (24 bytes).
    Removing pstorage.o(i.pstorage_block_identifier_get), (84 bytes).
    Removing pstorage.o(i.pstorage_clear), (164 bytes).
    Removing pstorage.o(i.pstorage_flash_page_end), (36 bytes).
    Removing pstorage.o(i.pstorage_flash_page_size), (10 bytes).
    Removing pstorage.o(i.pstorage_init), (76 bytes).
    Removing pstorage.o(i.pstorage_load), (168 bytes).
    Removing pstorage.o(i.pstorage_register), (188 bytes).
    Removing pstorage.o(i.pstorage_store), (144 bytes).
    Removing pstorage.o(i.pstorage_sys_event_handler), (76 bytes).
    Removing pstorage.o(i.pstorage_update), (144 bytes).
    Removing pstorage.o(i.sm_state_change), (72 bytes).
    Removing pstorage.o(i.state_data_erase_swap_entry_run), (100 bytes).
    Removing pstorage.o(i.state_erase_data_page_entry_run), (16 bytes).
    Removing pstorage.o(i.state_restore_head_entry_run), (40 bytes).
    Removing pstorage.o(i.state_restore_tail_entry_run), (76 bytes).
    Removing pstorage.o(i.state_swap_erase_entry_run), (32 bytes).
    Removing pstorage.o(i.state_write_data_swap_entry_run), (48 bytes).
    Removing pstorage.o(i.store_cmd_flash_write_execute), (92 bytes).
    Removing pstorage.o(i.swap_erase_state_run), (28 bytes).
    Removing pstorage.o(i.swap_sub_state_err_busy_process), (24 bytes).
    Removing pstorage.o(i.swap_sub_state_state_change), (20 bytes).
    Removing pstorage.o(i.tail_restore_state_run), (28 bytes).
    Removing pstorage.o(.constdata), (40 bytes).
    Removing nrf_drv_common.o(.rev16_text), (4 bytes).
    Removing nrf_drv_common.o(.revsh_text), (4 bytes).
    Removing nrf_delay.o(.rev16_text), (4 bytes).
    Removing nrf_delay.o(.revsh_text), (4 bytes).
    Removing nrf_delay.o(.emb_text), (30 bytes).
    Removing nrf_delay.o(i.nrf_delay_ms), (28 bytes).
    Removing nrf_drv_gpiote.o(.rev16_text), (4 bytes).
    Removing nrf_drv_gpiote.o(.revsh_text), (4 bytes).
    Removing nrf_drv_gpiote.o(i.nrf_drv_gpiote_in_event_addr_get), (24 bytes).
    Removing nrf_drv_gpiote.o(i.nrf_drv_gpiote_in_event_disable), (72 bytes).
    Removing nrf_drv_gpiote.o(i.nrf_drv_gpiote_in_uninit), (76 bytes).
    Removing nrf_drv_gpiote.o(i.nrf_drv_gpiote_out_clear), (16 bytes).
    Removing nrf_drv_gpiote.o(i.nrf_drv_gpiote_out_init), (152 bytes).
    Removing nrf_drv_gpiote.o(i.nrf_drv_gpiote_out_set), (16 bytes).
    Removing nrf_drv_gpiote.o(i.nrf_drv_gpiote_out_task_addr_get), (20 bytes).
    Removing nrf_drv_gpiote.o(i.nrf_drv_gpiote_out_task_disable), (32 bytes).
    Removing nrf_drv_gpiote.o(i.nrf_drv_gpiote_out_task_enable), (48 bytes).
    Removing nrf_drv_gpiote.o(i.nrf_drv_gpiote_out_task_force), (44 bytes).
    Removing nrf_drv_gpiote.o(i.nrf_drv_gpiote_out_task_trigger), (24 bytes).
    Removing nrf_drv_gpiote.o(i.nrf_drv_gpiote_out_toggle), (24 bytes).
    Removing nrf_drv_gpiote.o(i.nrf_drv_gpiote_out_uninit), (68 bytes).
    Removing nrf_drv_gpiote.o(i.nrf_drv_gpiote_uninit), (56 bytes).
    Removing nrf_drv_gpiote.o(i.nrf_gpio_cfg_default), (18 bytes).
    Removing nrf_drv_uart.o(.rev16_text), (4 bytes).
    Removing nrf_drv_uart.o(.revsh_text), (4 bytes).
    Removing nrf_drv_uart.o(i.nrf_drv_uart_errorsrc_get), (28 bytes).
    Removing nrf_drv_uart.o(i.nrf_drv_uart_rx_abort), (24 bytes).
    Removing nrf_drv_uart.o(i.nrf_drv_uart_rx_disable), (24 bytes).
    Removing nrf_drv_uart.o(i.nrf_drv_uart_tx), (32 bytes).
    Removing nrf_drv_uart.o(i.nrf_drv_uart_tx_abort), (44 bytes).
    Removing nrf_drv_uart.o(i.nrf_drv_uart_tx_for_uart), (116 bytes).
    Removing nrf_drv_uart.o(i.nrf_drv_uart_uninit), (108 bytes).
    Removing nrf_drv_uart.o(i.nrf_gpio_cfg_default), (18 bytes).
    Removing segger_rtt.o(i.SEGGER_RTT_ConfigDownBuffer), (76 bytes).
    Removing segger_rtt.o(i.SEGGER_RTT_ConfigUpBuffer), (76 bytes).
    Removing segger_rtt.o(i.SEGGER_RTT_GetKey), (28 bytes).
    Removing segger_rtt.o(i.SEGGER_RTT_HasData), (20 bytes).
    Removing segger_rtt.o(i.SEGGER_RTT_HasKey), (36 bytes).
    Removing segger_rtt.o(i.SEGGER_RTT_Init), (20 bytes).
    Removing segger_rtt.o(i.SEGGER_RTT_Read), (8 bytes).
    Removing segger_rtt.o(i.SEGGER_RTT_ReadNoLock), (128 bytes).
    Removing segger_rtt.o(i.SEGGER_RTT_SetNameDownBuffer), (48 bytes).
    Removing segger_rtt.o(i.SEGGER_RTT_SetNameUpBuffer), (48 bytes).
    Removing segger_rtt.o(i.SEGGER_RTT_SetTerminal), (104 bytes).
    Removing segger_rtt.o(i.SEGGER_RTT_TerminalOut), (148 bytes).
    Removing segger_rtt.o(i.SEGGER_RTT_WaitKey), (12 bytes).
    Removing segger_rtt.o(i.SEGGER_RTT_Write), (36 bytes).
    Removing segger_rtt.o(i.SEGGER_RTT_WriteNoLock), (92 bytes).
    Removing segger_rtt.o(i.SEGGER_RTT_WriteSkipNoLock), (108 bytes).
    Removing segger_rtt.o(i.SEGGER_RTT_WriteString), (24 bytes).
    Removing segger_rtt.o(i._DoInit), (108 bytes).
    Removing segger_rtt.o(i._GetAvailWriteSpace), (22 bytes).
    Removing segger_rtt.o(i._PostTerminalSwitch), (32 bytes).
    Removing segger_rtt.o(i._WriteBlocking), (96 bytes).
    Removing segger_rtt.o(i._WriteNoCheck), (60 bytes).
    Removing segger_rtt.o(.bss), (1160 bytes).
    Removing segger_rtt.o(.data), (17 bytes).
    Removing app_button.o(.rev16_text), (4 bytes).
    Removing app_button.o(.revsh_text), (4 bytes).
    Removing app_button.o(i.app_button_disable), (44 bytes).
    Removing app_button.o(i.app_button_is_pushed), (44 bytes).
    Removing app_error.o(.rev16_text), (4 bytes).
    Removing app_error.o(.revsh_text), (4 bytes).
    Removing app_error.o(i.app_error_handler), (24 bytes).
    Removing app_error.o(i.app_error_save_and_stop), (100 bytes).
    Removing app_error.o(.bss), (32 bytes).
    Removing app_timer.o(.rev16_text), (4 bytes).
    Removing app_timer.o(.revsh_text), (4 bytes).
    Removing app_timer.o(i.app_timer_cnt_diff_compute), (12 bytes).
    Removing app_timer.o(i.app_timer_cnt_get), (16 bytes).
    Removing app_timer.o(i.app_timer_stop_all), (68 bytes).
    Removing fds.o(.rev16_text), (4 bytes).
    Removing fds.o(.revsh_text), (4 bytes).
    Removing fds.o(i.fds_find_by_instance), (16 bytes).
    Removing fds.o(i.fds_gc), (56 bytes).
    Removing fstorage.o(.rev16_text), (4 bytes).
    Removing fstorage.o(.revsh_text), (4 bytes).
    Removing nrf_assert.o(.rev16_text), (4 bytes).
    Removing nrf_assert.o(.revsh_text), (4 bytes).
    Removing nrf_log.o(.rev16_text), (4 bytes).
    Removing nrf_log.o(.revsh_text), (4 bytes).
    Removing nrf_log.o(i.log_hex), (64 bytes).
    Removing nrf_log.o(i.log_hex_char), (56 bytes).
    Removing nrf_log.o(i.log_uart_printf), (20 bytes).
    Removing nrf_log.o(i.log_uart_read_input), (4 bytes).
    Removing nrf_log.o(i.log_uart_write_hex), (52 bytes).
    Removing nrf_log.o(i.log_uart_write_hex_char), (44 bytes).
    Removing retarget.o(.rev16_text), (4 bytes).
    Removing retarget.o(.revsh_text), (4 bytes).
    Removing retarget.o(i.fgetc), (18 bytes).
    Removing retarget.o(i.fputc), (14 bytes).
    Removing retarget.o(.data), (4 bytes).
    Removing retarget.o(.data), (4 bytes).
    Removing sdk_mapped_flags.o(.rev16_text), (4 bytes).
    Removing sdk_mapped_flags.o(.revsh_text), (4 bytes).
    Removing softdevice_handler.o(.rev16_text), (4 bytes).
    Removing softdevice_handler.o(.revsh_text), (4 bytes).
    Removing softdevice_handler.o(i.softdevice_handler_isEnabled), (12 bytes).
    Removing softdevice_handler.o(i.softdevice_handler_sd_disable), (24 bytes).
    Removing dadd.o(.text), (356 bytes).
    Removing dmul.o(.text), (208 bytes).
    Removing ddiv.o(.text), (240 bytes).
    Removing dfixul.o(.text), (64 bytes).
    Removing cdrcmple.o(.text), (40 bytes).
    Removing depilogue.o(.text), (190 bytes).
    Removing nrf_log.o(i.log_uart_write_string), (20 bytes).
    Removing nrf_log.o(i.log_uart_write_string_many), (32 bytes).
    Removing nrf_log.o(i.log_uart_has_input), (4 bytes).
    Removing depilogue.o(i.__ARM_clz), (46 bytes).

279 unused section(s) (total 12017 bytes) removed from the image.

==============================================================================

Image Symbol Table

    Local Symbols

    Symbol Name                              Value     Ov Type        Size  Object(Section)

    ../clib/../cmprslib/zerorunl2.c          0x00000000   Number         0  __dczerorl2.o ABSOLUTE
    ../clib/microlib/division.c              0x00000000   Number         0  uidiv.o ABSOLUTE
    ../clib/microlib/division.c              0x00000000   Number         0  uldiv.o ABSOLUTE
    ../clib/microlib/division.c              0x00000000   Number         0  idiv.o ABSOLUTE
    ../clib/microlib/init/entry.s            0x00000000   Number         0  entry11b.o ABSOLUTE
    ../clib/microlib/init/entry.s            0x00000000   Number         0  entry10a.o ABSOLUTE
    ../clib/microlib/init/entry.s            0x00000000   Number         0  entry.o ABSOLUTE
    ../clib/microlib/init/entry.s            0x00000000   Number         0  entry2.o ABSOLUTE
    ../clib/microlib/init/entry.s            0x00000000   Number         0  entry5.o ABSOLUTE
    ../clib/microlib/init/entry.s            0x00000000   Number         0  entry7a.o ABSOLUTE
    ../clib/microlib/init/entry.s            0x00000000   Number         0  entry7b.o ABSOLUTE
    ../clib/microlib/init/entry.s            0x00000000   Number         0  entry8a.o ABSOLUTE
    ../clib/microlib/init/entry.s            0x00000000   Number         0  entry8b.o ABSOLUTE
    ../clib/microlib/init/entry.s            0x00000000   Number         0  entry9a.o ABSOLUTE
    ../clib/microlib/init/entry.s            0x00000000   Number         0  entry9b.o ABSOLUTE
    ../clib/microlib/init/entry.s            0x00000000   Number         0  entry11a.o ABSOLUTE
    ../clib/microlib/init/entry.s            0x00000000   Number         0  entry10b.o ABSOLUTE
    ../clib/microlib/longlong.c              0x00000000   Number         0  llshl.o ABSOLUTE
    ../clib/microlib/longlong.c              0x00000000   Number         0  llushr.o ABSOLUTE
    ../clib/microlib/longlong.c              0x00000000   Number         0  llsshr.o ABSOLUTE
    ../clib/microlib/printf/printf.c         0x00000000   Number         0  printfa.o ABSOLUTE
    ../clib/microlib/string/memcmp.c         0x00000000   Number         0  memcmp.o ABSOLUTE
    ../clib/microlib/string/memcpy.c         0x00000000   Number         0  memcpyb.o ABSOLUTE
    ../clib/microlib/string/memcpy.c         0x00000000   Number         0  memmoveb.o ABSOLUTE
    ../clib/microlib/string/memcpy.c         0x00000000   Number         0  memmovea.o ABSOLUTE
    ../clib/microlib/string/memcpy.c         0x00000000   Number         0  memcpya.o ABSOLUTE
    ../clib/microlib/string/memset.c         0x00000000   Number         0  memseta.o ABSOLUTE
    ../clib/microlib/string/strcpy.c         0x00000000   Number         0  strcpy.o ABSOLUTE
    ../clib/microlib/string/strlen.c         0x00000000   Number         0  strlen.o ABSOLUTE
    ../clib/microlib/stubs.s                 0x00000000   Number         0  iusefp.o ABSOLUTE
    ../clib/microlib/unhosted.c              0x00000000   Number         0  uread4.o ABSOLUTE
    ../fplib/microlib/fpadd.c                0x00000000   Number         0  dadd.o ABSOLUTE
    ../fplib/microlib/fpdiv.c                0x00000000   Number         0  ddiv.o ABSOLUTE
    ../fplib/microlib/fpepilogue.c           0x00000000   Number         0  depilogue.o ABSOLUTE
    ../fplib/microlib/fpfix.c                0x00000000   Number         0  dfixul.o ABSOLUTE
    ../fplib/microlib/fpmul.c                0x00000000   Number         0  dmul.o ABSOLUTE
    ..\..\..\main.c                          0x00000000   Number         0  main.o ABSOLUTE
    ..\\..\\..\\main.c                       0x00000000   Number         0  main.o ABSOLUTE
    C:\Keil_v5\ARM\PACK\NordicSemiconductor\nRF_BLE\4.0.0-2.alpha\ble_services\ble_hrs\ble_hrs.c 0x00000000   Number         0  ble_hrs.o ABSOLUTE
    C:\Keil_v5\ARM\PACK\NordicSemiconductor\nRF_BLE\4.0.0-2.alpha\ble_services\ble_hrs_c\ble_hrs_c.c 0x00000000   Number         0  ble_hrs_c.o ABSOLUTE
    C:\Keil_v5\ARM\PACK\NordicSemiconductor\nRF_BLE\4.0.0-2.alpha\ble_services\ble_rscs\ble_rscs.c 0x00000000   Number         0  ble_rscs.o ABSOLUTE
    C:\Keil_v5\ARM\PACK\NordicSemiconductor\nRF_BLE\4.0.0-2.alpha\ble_services\ble_rscs_c\ble_rscs_c.c 0x00000000   Number         0  ble_rscs_c.o ABSOLUTE
    C:\Keil_v5\ARM\PACK\NordicSemiconductor\nRF_BLE\4.0.0-2.alpha\common\ble_srv_common.c 0x00000000   Number         0  ble_srv_common.o ABSOLUTE
    C:\Keil_v5\ARM\PACK\NordicSemiconductor\nRF_Drivers\4.0.0-2.alpha\common\nrf_drv_common.c 0x00000000   Number         0  nrf_drv_common.o ABSOLUTE
    C:\Keil_v5\ARM\PACK\NordicSemiconductor\nRF_Drivers\4.0.0-2.alpha\delay\nrf_delay.c 0x00000000   Number         0  nrf_delay.o ABSOLUTE
    C:\Keil_v5\ARM\PACK\NordicSemiconductor\nRF_Drivers\4.0.0-2.alpha\gpiote\nrf_drv_gpiote.c 0x00000000   Number         0  nrf_drv_gpiote.o ABSOLUTE
    C:\Keil_v5\ARM\PACK\NordicSemiconductor\nRF_Drivers\4.0.0-2.alpha\uart\nrf_drv_uart.c 0x00000000   Number         0  nrf_drv_uart.o ABSOLUTE
    C:\Keil_v5\ARM\PACK\NordicSemiconductor\nRF_Drivers_External\1.2.1-2.alpha\segger_rtt\RTT_Syscalls_KEIL.c 0x00000000   Number         0  rtt_syscalls_keil.o ABSOLUTE
    C:\\Keil_v5\\ARM\\PACK\\NordicSemiconductor\\nRF_BLE\\4.0.0-2.alpha\\ble_services\\ble_hrs\\ble_hrs.c 0x00000000   Number         0  ble_hrs.o ABSOLUTE
    C:\\Keil_v5\\ARM\\PACK\\NordicSemiconductor\\nRF_BLE\\4.0.0-2.alpha\\ble_services\\ble_hrs_c\\ble_hrs_c.c 0x00000000   Number         0  ble_hrs_c.o ABSOLUTE
    C:\\Keil_v5\\ARM\\PACK\\NordicSemiconductor\\nRF_BLE\\4.0.0-2.alpha\\ble_services\\ble_rscs\\ble_rscs.c 0x00000000   Number         0  ble_rscs.o ABSOLUTE
    C:\\Keil_v5\\ARM\\PACK\\NordicSemiconductor\\nRF_BLE\\4.0.0-2.alpha\\ble_services\\ble_rscs_c\\ble_rscs_c.c 0x00000000   Number         0  ble_rscs_c.o ABSOLUTE
    C:\\Keil_v5\\ARM\\PACK\\NordicSemiconductor\\nRF_BLE\\4.0.0-2.alpha\\common\\ble_srv_common.c 0x00000000   Number         0  ble_srv_common.o ABSOLUTE
    C:\\Keil_v5\\ARM\\PACK\\NordicSemiconductor\\nRF_Drivers\\4.0.0-2.alpha\\common\\nrf_drv_common.c 0x00000000   Number         0  nrf_drv_common.o ABSOLUTE
    C:\\Keil_v5\\ARM\\PACK\\NordicSemiconductor\\nRF_Drivers\\4.0.0-2.alpha\\delay\\nrf_delay.c 0x00000000   Number         0  nrf_delay.o ABSOLUTE
    C:\\Keil_v5\\ARM\\PACK\\NordicSemiconductor\\nRF_Drivers\\4.0.0-2.alpha\\gpiote\\nrf_drv_gpiote.c 0x00000000   Number         0  nrf_drv_gpiote.o ABSOLUTE
    C:\\Keil_v5\\ARM\\PACK\\NordicSemiconductor\\nRF_Drivers\\4.0.0-2.alpha\\uart\\nrf_drv_uart.c 0x00000000   Number         0  nrf_drv_uart.o ABSOLUTE
    RTE\Board_Support\nRF51422_xxAC\bsp.c    0x00000000   Number         0  bsp.o ABSOLUTE
    RTE\Board_Support\nRF51422_xxAC\bsp_btn_ble.c 0x00000000   Number         0  bsp_btn_ble.o ABSOLUTE
    RTE\Device\nRF51422_xxAC\arm_startup_nrf51.s 0x00000000   Number         0  arm_startup_nrf51.o ABSOLUTE
    RTE\Device\nRF51422_xxAC\system_nrf51.c  0x00000000   Number         0  system_nrf51.o ABSOLUTE
    RTE\\Board_Support\\nRF51422_xxAC\\bsp.c 0x00000000   Number         0  bsp.o ABSOLUTE
    RTE\\Board_Support\\nRF51422_xxAC\\bsp_btn_ble.c 0x00000000   Number         0  bsp_btn_ble.o ABSOLUTE
    RTE\\Device\\nRF51422_xxAC\\system_nrf51.c 0x00000000   Number         0  system_nrf51.o ABSOLUTE
    RTE\\nRF_BLE\\nRF51422_xxAC\\ble_advdata.c 0x00000000   Number         0  ble_advdata.o ABSOLUTE
    RTE\\nRF_BLE\\nRF51422_xxAC\\ble_advertising.c 0x00000000   Number         0  ble_advertising.o ABSOLUTE
    RTE\\nRF_BLE\\nRF51422_xxAC\\ble_conn_params.c 0x00000000   Number         0  ble_conn_params.o ABSOLUTE
    RTE\\nRF_BLE\\nRF51422_xxAC\\ble_conn_state.c 0x00000000   Number         0  ble_conn_state.o ABSOLUTE
    RTE\\nRF_BLE\\nRF51422_xxAC\\ble_db_discovery.c 0x00000000   Number         0  ble_db_discovery.o ABSOLUTE
    RTE\\nRF_BLE\\nRF51422_xxAC\\gatt_cache_manager.c 0x00000000   Number         0  gatt_cache_manager.o ABSOLUTE
    RTE\\nRF_BLE\\nRF51422_xxAC\\gattc_cache_manager.c 0x00000000   Number         0  gattc_cache_manager.o ABSOLUTE
    RTE\\nRF_BLE\\nRF51422_xxAC\\gatts_cache_manager.c 0x00000000   Number         0  gatts_cache_manager.o ABSOLUTE
    RTE\\nRF_BLE\\nRF51422_xxAC\\id_manager.c 0x00000000   Number         0  id_manager.o ABSOLUTE
    RTE\\nRF_BLE\\nRF51422_xxAC\\peer_data.c 0x00000000   Number         0  peer_data.o ABSOLUTE
    RTE\\nRF_BLE\\nRF51422_xxAC\\peer_data_storage.c 0x00000000   Number         0  peer_data_storage.o ABSOLUTE
    RTE\\nRF_BLE\\nRF51422_xxAC\\peer_database.c 0x00000000   Number         0  peer_database.o ABSOLUTE
    RTE\\nRF_BLE\\nRF51422_xxAC\\peer_id.c   0x00000000   Number         0  peer_id.o ABSOLUTE
    RTE\\nRF_BLE\\nRF51422_xxAC\\peer_manager.c 0x00000000   Number         0  peer_manager.o ABSOLUTE
    RTE\\nRF_BLE\\nRF51422_xxAC\\pm_mutex.c  0x00000000   Number         0  pm_mutex.o ABSOLUTE
    RTE\\nRF_BLE\\nRF51422_xxAC\\security_dispatcher.c 0x00000000   Number         0  security_dispatcher.o ABSOLUTE
    RTE\\nRF_BLE\\nRF51422_xxAC\\security_manager.c 0x00000000   Number         0  security_manager.o ABSOLUTE
    RTE\\nRF_Drivers\\nRF51422_xxAC\\app_uart.c 0x00000000   Number         0  app_uart.o ABSOLUTE
    RTE\\nRF_Drivers\\nRF51422_xxAC\\pstorage.c 0x00000000   Number         0  pstorage.o ABSOLUTE
    RTE\\nRF_Libraries\\nRF51422_xxAC\\app_button.c 0x00000000   Number         0  app_button.o ABSOLUTE
    RTE\\nRF_Libraries\\nRF51422_xxAC\\app_error.c 0x00000000   Number         0  app_error.o ABSOLUTE
    RTE\\nRF_Libraries\\nRF51422_xxAC\\app_timer.c 0x00000000   Number         0  app_timer.o ABSOLUTE
    RTE\\nRF_Libraries\\nRF51422_xxAC\\fds.c 0x00000000   Number         0  fds.o ABSOLUTE
    RTE\\nRF_Libraries\\nRF51422_xxAC\\fstorage.c 0x00000000   Number         0  fstorage.o ABSOLUTE
    RTE\\nRF_Libraries\\nRF51422_xxAC\\nrf_assert.c 0x00000000   Number         0  nrf_assert.o ABSOLUTE
    RTE\\nRF_Libraries\\nRF51422_xxAC\\nrf_log.c 0x00000000   Number         0  nrf_log.o ABSOLUTE
    RTE\\nRF_Libraries\\nRF51422_xxAC\\retarget.c 0x00000000   Number         0  retarget.o ABSOLUTE
    RTE\\nRF_Libraries\\nRF51422_xxAC\\sdk_mapped_flags.c 0x00000000   Number         0  sdk_mapped_flags.o ABSOLUTE
    RTE\\nRF_SoftDevice\\nRF51422_xxAC\\softdevice_handler.c 0x00000000   Number         0  softdevice_handler.o ABSOLUTE
    RTE\nRF_BLE\nRF51422_xxAC\ble_advdata.c  0x00000000   Number         0  ble_advdata.o ABSOLUTE
    RTE\nRF_BLE\nRF51422_xxAC\ble_advertising.c 0x00000000   Number         0  ble_advertising.o ABSOLUTE
    RTE\nRF_BLE\nRF51422_xxAC\ble_conn_params.c 0x00000000   Number         0  ble_conn_params.o ABSOLUTE
    RTE\nRF_BLE\nRF51422_xxAC\ble_conn_state.c 0x00000000   Number         0  ble_conn_state.o ABSOLUTE
    RTE\nRF_BLE\nRF51422_xxAC\ble_db_discovery.c 0x00000000   Number         0  ble_db_discovery.o ABSOLUTE
    RTE\nRF_BLE\nRF51422_xxAC\gatt_cache_manager.c 0x00000000   Number         0  gatt_cache_manager.o ABSOLUTE
    RTE\nRF_BLE\nRF51422_xxAC\gattc_cache_manager.c 0x00000000   Number         0  gattc_cache_manager.o ABSOLUTE
    RTE\nRF_BLE\nRF51422_xxAC\gatts_cache_manager.c 0x00000000   Number         0  gatts_cache_manager.o ABSOLUTE
    RTE\nRF_BLE\nRF51422_xxAC\id_manager.c   0x00000000   Number         0  id_manager.o ABSOLUTE
    RTE\nRF_BLE\nRF51422_xxAC\peer_data.c    0x00000000   Number         0  peer_data.o ABSOLUTE
    RTE\nRF_BLE\nRF51422_xxAC\peer_data_storage.c 0x00000000   Number         0  peer_data_storage.o ABSOLUTE
    RTE\nRF_BLE\nRF51422_xxAC\peer_database.c 0x00000000   Number         0  peer_database.o ABSOLUTE
    RTE\nRF_BLE\nRF51422_xxAC\peer_id.c      0x00000000   Number         0  peer_id.o ABSOLUTE
    RTE\nRF_BLE\nRF51422_xxAC\peer_manager.c 0x00000000   Number         0  peer_manager.o ABSOLUTE
    RTE\nRF_BLE\nRF51422_xxAC\pm_buffer.c    0x00000000   Number         0  pm_buffer.o ABSOLUTE
    RTE\nRF_BLE\nRF51422_xxAC\pm_mutex.c     0x00000000   Number         0  pm_mutex.o ABSOLUTE
    RTE\nRF_BLE\nRF51422_xxAC\security_dispatcher.c 0x00000000   Number         0  security_dispatcher.o ABSOLUTE
    RTE\nRF_BLE\nRF51422_xxAC\security_manager.c 0x00000000   Number         0  security_manager.o ABSOLUTE
    RTE\nRF_Drivers\nRF51422_xxAC\app_uart.c 0x00000000   Number         0  app_uart.o ABSOLUTE
    RTE\nRF_Drivers\nRF51422_xxAC\pstorage.c 0x00000000   Number         0  pstorage.o ABSOLUTE
    RTE\nRF_Libraries\nRF51422_xxAC\SEGGER_RTT.c 0x00000000   Number         0  segger_rtt.o ABSOLUTE
    RTE\nRF_Libraries\nRF51422_xxAC\SEGGER_RTT_printf.c 0x00000000   Number         0  segger_rtt_printf.o ABSOLUTE
    RTE\nRF_Libraries\nRF51422_xxAC\app_button.c 0x00000000   Number         0  app_button.o ABSOLUTE
    RTE\nRF_Libraries\nRF51422_xxAC\app_error.c 0x00000000   Number         0  app_error.o ABSOLUTE
    RTE\nRF_Libraries\nRF51422_xxAC\app_timer.c 0x00000000   Number         0  app_timer.o ABSOLUTE
    RTE\nRF_Libraries\nRF51422_xxAC\app_trace.c 0x00000000   Number         0  app_trace.o ABSOLUTE
    RTE\nRF_Libraries\nRF51422_xxAC\fds.c    0x00000000   Number         0  fds.o ABSOLUTE
    RTE\nRF_Libraries\nRF51422_xxAC\fstorage.c 0x00000000   Number         0  fstorage.o ABSOLUTE
    RTE\nRF_Libraries\nRF51422_xxAC\nrf_assert.c 0x00000000   Number         0  nrf_assert.o ABSOLUTE
    RTE\nRF_Libraries\nRF51422_xxAC\nrf_log.c 0x00000000   Number         0  nrf_log.o ABSOLUTE
    RTE\nRF_Libraries\nRF51422_xxAC\retarget.c 0x00000000   Number         0  retarget.o ABSOLUTE
    RTE\nRF_Libraries\nRF51422_xxAC\sdk_mapped_flags.c 0x00000000   Number         0  sdk_mapped_flags.o ABSOLUTE
    RTE\nRF_SoftDevice\nRF51422_xxAC\softdevice_handler.c 0x00000000   Number         0  softdevice_handler.o ABSOLUTE
    cdrcmple.s                               0x00000000   Number         0  cdrcmple.o ABSOLUTE
    dc.s                                     0x00000000   Number         0  dc.o ABSOLUTE
    handlers.s                               0x00000000   Number         0  handlers.o ABSOLUTE
    init.s                                   0x00000000   Number         0  init.o ABSOLUTE
    RESET                                    0x0001b000   Section      192  arm_startup_nrf51.o(RESET)
    .ARM.Collect$$$$00000000                 0x0001b0c0   Section        0  entry.o(.ARM.Collect$$$$00000000)
    .ARM.Collect$$$$00000001                 0x0001b0c0   Section        4  entry2.o(.ARM.Collect$$$$00000001)
    .ARM.Collect$$$$00000004                 0x0001b0c4   Section        4  entry5.o(.ARM.Collect$$$$00000004)
    .ARM.Collect$$$$00000008                 0x0001b0c8   Section        0  entry7b.o(.ARM.Collect$$$$00000008)
    .ARM.Collect$$$$0000000A                 0x0001b0c8   Section        0  entry8b.o(.ARM.Collect$$$$0000000A)
    .ARM.Collect$$$$0000000B                 0x0001b0c8   Section        8  entry9a.o(.ARM.Collect$$$$0000000B)
    .ARM.Collect$$$$0000000D                 0x0001b0d0   Section        0  entry10a.o(.ARM.Collect$$$$0000000D)
    .ARM.Collect$$$$0000000F                 0x0001b0d0   Section        0  entry11a.o(.ARM.Collect$$$$0000000F)
    .ARM.Collect$$$$00002712                 0x0001b0d0   Section        4  entry2.o(.ARM.Collect$$$$00002712)
    __lit__00000000                          0x0001b0d0   Data           4  entry2.o(.ARM.Collect$$$$00002712)
    .emb_text                                0x0001b0d4   Section       30  app_timer.o(.emb_text)
    .text                                    0x0001b0f4   Section       56  arm_startup_nrf51.o(.text)
    .text                                    0x0001b12c   Section        0  uidiv.o(.text)
    .text                                    0x0001b158   Section        0  memmovea.o(.text)
    .text                                    0x0001b198   Section        0  memseta.o(.text)
    .text                                    0x0001b1bc   Section        0  memcmp.o(.text)
    .text                                    0x0001b1d6   Section        0  uread4.o(.text)
    .text                                    0x0001b1ec   Section       36  init.o(.text)
    .text                                    0x0001b210   Section        0  __dczerorl2.o(.text)
    i.GPIOTE_IRQHandler                      0x0001b268   Section        0  nrf_drv_gpiote.o(i.GPIOTE_IRQHandler)
    i.NVIC_SetPriority                       0x0001b370   Section        0  app_timer.o(i.NVIC_SetPriority)
    NVIC_SetPriority                         0x0001b371   Thumb Code    60  app_timer.o(i.NVIC_SetPriority)
    i.PM_PEER_DATA_ID_IS_VALID               0x0001b3b4   Section        0  peer_data_storage.o(i.PM_PEER_DATA_ID_IS_VALID)
    PM_PEER_DATA_ID_IS_VALID                 0x0001b3b5   Thumb Code    12  peer_data_storage.o(i.PM_PEER_DATA_ID_IS_VALID)
    i.PM_REMOTE_DB_N_WORDS                   0x0001b3c0   Section        0  peer_database.o(i.PM_REMOTE_DB_N_WORDS)
    PM_REMOTE_DB_N_WORDS                     0x0001b3c1   Thumb Code    14  peer_database.o(i.PM_REMOTE_DB_N_WORDS)
    i.RTC1_IRQHandler                        0x0001b3d0   Section        0  app_timer.o(i.RTC1_IRQHandler)
    i.SWI0_IRQHandler                        0x0001b3f0   Section        0  app_timer.o(i.SWI0_IRQHandler)
    i.SWI2_IRQHandler                        0x0001b3f8   Section        0  softdevice_handler.o(i.SWI2_IRQHandler)
    i.SystemInit                             0x0001b418   Section        0  system_nrf51.o(i.SystemInit)
    i.UART0_IRQHandler                       0x0001b46c   Section        0  nrf_drv_uart.o(i.UART0_IRQHandler)
    i.__ARM_common_switch8                   0x0001b474   Section        0  main.o(i.__ARM_common_switch8)
    i.__scatterload_copy                     0x0001b48e   Section       14  handlers.o(i.__scatterload_copy)
    i.__scatterload_null                     0x0001b49c   Section        2  handlers.o(i.__scatterload_null)
    i.__scatterload_zeroinit                 0x0001b49e   Section       14  handlers.o(i.__scatterload_zeroinit)
    i.addr_compare                           0x0001b4ac   Section        0  id_manager.o(i.addr_compare)
    i.adv_data_encode                        0x0001b4d4   Section        0  ble_advdata.o(i.adv_data_encode)
    i.adv_report_parse                       0x0001b6ea   Section        0  main.o(i.adv_report_parse)
    adv_report_parse                         0x0001b6eb   Thumb Code    46  main.o(i.adv_report_parse)
    i.advertising_buttons_configure          0x0001b718   Section        0  bsp_btn_ble.o(i.advertising_buttons_configure)
    advertising_buttons_configure            0x0001b719   Thumb Code    60  bsp_btn_ble.o(i.advertising_buttons_configure)
    i.ah                                     0x0001b754   Section        0  id_manager.o(i.ah)
    i.alert_timer_handler                    0x0001b7a4   Section        0  bsp.o(i.alert_timer_handler)
    alert_timer_handler                      0x0001b7a5   Thumb Code    20  bsp.o(i.alert_timer_handler)
    i.app_button_enable                      0x0001b7bc   Section        0  app_button.o(i.app_button_enable)
    i.app_button_init                        0x0001b7e0   Section        0  app_button.o(i.app_button_init)
    i.app_error_fault_handler                0x0001b854   Section        0  app_error.o(i.app_error_fault_handler)
    i.app_error_handler_bare                 0x0001b870   Section        0  app_error.o(i.app_error_handler_bare)
    i.app_notify                             0x0001b888   Section        0  fds.o(i.app_notify)
    app_notify                               0x0001b889   Thumb Code    30  fds.o(i.app_notify)
    i.app_notify                             0x0001b8ac   Section        0  fstorage.o(i.app_notify)
    app_notify                               0x0001b8ad   Thumb Code    62  fstorage.o(i.app_notify)
    i.app_timer_create                       0x0001b8ec   Section        0  app_timer.o(i.app_timer_create)
    i.app_timer_init                         0x0001b918   Section        0  app_timer.o(i.app_timer_init)
    i.app_timer_start                        0x0001b9a8   Section        0  app_timer.o(i.app_timer_start)
    i.app_timer_stop                         0x0001ba24   Section        0  app_timer.o(i.app_timer_stop)
    i.app_uart_init                          0x0001ba78   Section        0  app_uart.o(i.app_uart_init)
    i.auth_status_success_process            0x0001bafc   Section        0  security_dispatcher.o(i.auth_status_success_process)
    auth_status_success_process              0x0001bafd   Thumb Code   160  security_dispatcher.o(i.auth_status_success_process)
    i.ble_advdata_set                        0x0001bba4   Section        0  ble_advdata.o(i.ble_advdata_set)
    i.ble_advertising_init                   0x0001bc0c   Section        0  ble_advertising.o(i.ble_advertising_init)
    i.ble_advertising_on_ble_evt             0x0001bd30   Section        0  ble_advertising.o(i.ble_advertising_on_ble_evt)
    i.ble_advertising_on_sys_evt             0x0001bdac   Section        0  ble_advertising.o(i.ble_advertising_on_sys_evt)
    i.ble_advertising_peer_address_clear     0x0001bddc   Section        0  ble_advertising.o(i.ble_advertising_peer_address_clear)
    ble_advertising_peer_address_clear       0x0001bddd   Thumb Code    12  ble_advertising.o(i.ble_advertising_peer_address_clear)
    i.ble_advertising_start                  0x0001bdec   Section        0  ble_advertising.o(i.ble_advertising_start)
    i.ble_conn_params_init                   0x0001bfcc   Section        0  ble_conn_params.o(i.ble_conn_params_init)
    i.ble_conn_params_on_ble_evt             0x0001c020   Section        0  ble_conn_params.o(i.ble_conn_params_on_ble_evt)
    i.ble_conn_state_conn_handles            0x0001c0b0   Section        0  ble_conn_state.o(i.ble_conn_state_conn_handles)
    i.ble_conn_state_encrypted               0x0001c0c4   Section        0  ble_conn_state.o(i.ble_conn_state_encrypted)
    i.ble_conn_state_mitm_protected          0x0001c0d8   Section        0  ble_conn_state.o(i.ble_conn_state_mitm_protected)
    i.ble_conn_state_n_centrals              0x0001c0ec   Section        0  ble_conn_state.o(i.ble_conn_state_n_centrals)
    i.ble_conn_state_on_ble_evt              0x0001c100   Section        0  ble_conn_state.o(i.ble_conn_state_on_ble_evt)
    i.ble_conn_state_role                    0x0001c1f8   Section        0  ble_conn_state.o(i.ble_conn_state_role)
    i.ble_conn_state_user_flag_acquire       0x0001c22c   Section        0  ble_conn_state.o(i.ble_conn_state_user_flag_acquire)
    i.ble_conn_state_user_flag_collection    0x0001c25c   Section        0  ble_conn_state.o(i.ble_conn_state_user_flag_collection)
    i.ble_conn_state_user_flag_get           0x0001c274   Section        0  ble_conn_state.o(i.ble_conn_state_user_flag_get)
    i.ble_conn_state_user_flag_set           0x0001c298   Section        0  ble_conn_state.o(i.ble_conn_state_user_flag_set)
    i.ble_db_discovery_evt_register          0x0001c2c0   Section        0  ble_db_discovery.o(i.ble_db_discovery_evt_register)
    i.ble_db_discovery_init                  0x0001c30c   Section        0  ble_db_discovery.o(i.ble_db_discovery_init)
    i.ble_db_discovery_on_ble_evt            0x0001c320   Section        0  ble_db_discovery.o(i.ble_db_discovery_on_ble_evt)
    i.ble_db_discovery_start                 0x0001c3c0   Section        0  ble_db_discovery.o(i.ble_db_discovery_start)
    i.ble_device_addr_encode                 0x0001c420   Section        0  ble_advdata.o(i.ble_device_addr_encode)
    ble_device_addr_encode                   0x0001c421   Thumb Code    94  ble_advdata.o(i.ble_device_addr_encode)
    i.ble_evt_dispatch                       0x0001c480   Section        0  main.o(i.ble_evt_dispatch)
    ble_evt_dispatch                         0x0001c481   Thumb Code   182  main.o(i.ble_evt_dispatch)
    i.ble_hrs_c_hrm_notif_enable             0x0001c548   Section        0  ble_hrs_c.o(i.ble_hrs_c_hrm_notif_enable)
    i.ble_hrs_c_init                         0x0001c594   Section        0  ble_hrs_c.o(i.ble_hrs_c_init)
    i.ble_hrs_c_on_ble_evt                   0x0001c5d4   Section        0  ble_hrs_c.o(i.ble_hrs_c_on_ble_evt)
    i.ble_hrs_heart_rate_measurement_send    0x0001c628   Section        0  ble_hrs.o(i.ble_hrs_heart_rate_measurement_send)
    i.ble_hrs_init                           0x0001c680   Section        0  ble_hrs.o(i.ble_hrs_init)
    i.ble_hrs_on_ble_evt                     0x0001c6dc   Section        0  ble_hrs.o(i.ble_hrs_on_ble_evt)
    i.ble_rscs_c_init                        0x0001c72c   Section        0  ble_rscs_c.o(i.ble_rscs_c_init)
    i.ble_rscs_c_on_ble_evt                  0x0001c76c   Section        0  ble_rscs_c.o(i.ble_rscs_c_on_ble_evt)
    i.ble_rscs_c_rsc_notif_enable            0x0001c798   Section        0  ble_rscs_c.o(i.ble_rscs_c_rsc_notif_enable)
    i.ble_rscs_init                          0x0001c7e4   Section        0  ble_rscs.o(i.ble_rscs_init)
    i.ble_rscs_measurement_send              0x0001c834   Section        0  ble_rscs.o(i.ble_rscs_measurement_send)
    i.ble_rscs_on_ble_evt                    0x0001c894   Section        0  ble_rscs.o(i.ble_rscs_on_ble_evt)
    i.ble_stack_init                         0x0001c8ec   Section        0  main.o(i.ble_stack_init)
    ble_stack_init                           0x0001c8ed   Thumb Code   102  main.o(i.ble_stack_init)
    i.body_sensor_location_char_add          0x0001c964   Section        0  ble_hrs.o(i.body_sensor_location_char_add)
    body_sensor_location_char_add            0x0001c965   Thumb Code   130  ble_hrs.o(i.body_sensor_location_char_add)
    i.bsp_btn_ble_init                       0x0001c9ec   Section        0  bsp_btn_ble.o(i.bsp_btn_ble_init)
    i.bsp_button_event_handler               0x0001ca40   Section        0  bsp.o(i.bsp_button_event_handler)
    bsp_button_event_handler                 0x0001ca41   Thumb Code   148  bsp.o(i.bsp_button_event_handler)
    i.bsp_button_is_pressed                  0x0001cae0   Section        0  bsp.o(i.bsp_button_is_pressed)
    i.bsp_event_to_button_action_assign      0x0001cb0c   Section        0  bsp.o(i.bsp_event_to_button_action_assign)
    i.bsp_init                               0x0001cb54   Section        0  bsp.o(i.bsp_init)
    i.bsp_led_indication                     0x0001cbf4   Section        0  bsp.o(i.bsp_led_indication)
    bsp_led_indication                       0x0001cbf5   Thumb Code   492  bsp.o(i.bsp_led_indication)
    i.button_timer_handler                   0x0001cdec   Section        0  bsp.o(i.button_timer_handler)
    button_timer_handler                     0x0001cded   Thumb Code    12  bsp.o(i.button_timer_handler)
    i.channel_free                           0x0001cdf8   Section        0  nrf_drv_gpiote.o(i.channel_free)
    channel_free                             0x0001cdf9   Thumb Code    22  nrf_drv_gpiote.o(i.channel_free)
    i.channel_port_alloc                     0x0001ce14   Section        0  nrf_drv_gpiote.o(i.channel_port_alloc)
    channel_port_alloc                       0x0001ce15   Thumb Code    66  nrf_drv_gpiote.o(i.channel_port_alloc)
    i.channel_port_get                       0x0001ce5c   Section        0  nrf_drv_gpiote.o(i.channel_port_get)
    channel_port_get                         0x0001ce5d   Thumb Code    10  nrf_drv_gpiote.o(i.channel_port_get)
    i.characteristics_discover               0x0001ce6c   Section        0  ble_db_discovery.o(i.characteristics_discover)
    characteristics_discover                 0x0001ce6d   Thumb Code    60  ble_db_discovery.o(i.characteristics_discover)
    i.check_config                           0x0001cea8   Section        0  fstorage.o(i.check_config)
    check_config                             0x0001cea9   Thumb Code    24  fstorage.o(i.check_config)
    i.chunk_queue_next                       0x0001cec8   Section        0  fds.o(i.chunk_queue_next)
    i.cmd_enqueue                            0x0001cee0   Section        0  fstorage.o(i.cmd_enqueue)
    cmd_enqueue                              0x0001cee1   Thumb Code    76  fstorage.o(i.cmd_enqueue)
    i.cmd_queue_process                      0x0001cf34   Section        0  fds.o(i.cmd_queue_process)
    cmd_queue_process                        0x0001cf35   Thumb Code   240  fds.o(i.cmd_queue_process)
    i.cmd_queue_process_start                0x0001d02c   Section        0  fds.o(i.cmd_queue_process_start)
    cmd_queue_process_start                  0x0001d02d   Thumb Code    32  fds.o(i.cmd_queue_process_start)
    i.compare_reg_update                     0x0001d04c   Section        0  app_timer.o(i.compare_reg_update)
    compare_reg_update                       0x0001d04d   Thumb Code   142  app_timer.o(i.compare_reg_update)
    i.conn_int_encode                        0x0001d0f4   Section        0  ble_advdata.o(i.conn_int_encode)
    conn_int_encode                          0x0001d0f5   Thumb Code   130  ble_advdata.o(i.conn_int_encode)
    i.conn_params_error_handler              0x0001d17c   Section        0  main.o(i.conn_params_error_handler)
    conn_params_error_handler                0x0001d17d   Thumb Code     8  main.o(i.conn_params_error_handler)
    i.conn_params_negotiation                0x0001d184   Section        0  ble_conn_params.o(i.conn_params_negotiation)
    conn_params_negotiation                  0x0001d185   Thumb Code    92  ble_conn_params.o(i.conn_params_negotiation)
    i.convert_peer_data_id_to_type_id        0x0001d1ec   Section        0  peer_data_storage.o(i.convert_peer_data_id_to_type_id)
    convert_peer_data_id_to_type_id          0x0001d1ed   Thumb Code    10  peer_data_storage.o(i.convert_peer_data_id_to_type_id)
    i.convert_peer_id_to_instance_id         0x0001d1f6   Section        0  peer_data_storage.o(i.convert_peer_id_to_instance_id)
    convert_peer_id_to_instance_id           0x0001d1f7   Thumb Code    10  peer_data_storage.o(i.convert_peer_id_to_instance_id)
    i.convert_type_id_to_peer_data_id        0x0001d200   Section        0  peer_data_storage.o(i.convert_type_id_to_peer_data_id)
    convert_type_id_to_peer_data_id          0x0001d201   Thumb Code    10  peer_data_storage.o(i.convert_type_id_to_peer_data_id)
    i.current_int_priority_get               0x0001d20c   Section        0  pm_mutex.o(i.current_int_priority_get)
    current_int_priority_get                 0x0001d20d   Thumb Code    60  pm_mutex.o(i.current_int_priority_get)
    i.db_discover_evt_handler                0x0001d250   Section        0  ble_hrs_c.o(i.db_discover_evt_handler)
    db_discover_evt_handler                  0x0001d251   Thumb Code    86  ble_hrs_c.o(i.db_discover_evt_handler)
    i.db_discover_evt_handler                0x0001d2b4   Section        0  ble_rscs_c.o(i.db_discover_evt_handler)
    db_discover_evt_handler                  0x0001d2b5   Thumb Code    90  ble_rscs_c.o(i.db_discover_evt_handler)
    i.descriptors_discover                   0x0001d31c   Section        0  ble_db_discovery.o(i.descriptors_discover)
    descriptors_discover                     0x0001d31d   Thumb Code   132  ble_db_discovery.o(i.descriptors_discover)
    i.detection_delay_timeout_handler        0x0001d3a0   Section        0  app_button.o(i.detection_delay_timeout_handler)
    detection_delay_timeout_handler          0x0001d3a1   Thumb Code    90  app_button.o(i.detection_delay_timeout_handler)
    i.disconnect_process                     0x0001d400   Section        0  security_dispatcher.o(i.disconnect_process)
    disconnect_process                       0x0001d401   Thumb Code    84  security_dispatcher.o(i.disconnect_process)
    i.discovery_complete_evt_trigger         0x0001d45c   Section        0  ble_db_discovery.o(i.discovery_complete_evt_trigger)
    discovery_complete_evt_trigger           0x0001d45d   Thumb Code   100  ble_db_discovery.o(i.discovery_complete_evt_trigger)
    i.discovery_error_evt_trigger            0x0001d4c8   Section        0  ble_db_discovery.o(i.discovery_error_evt_trigger)
    discovery_error_evt_trigger              0x0001d4c9   Thumb Code    72  ble_db_discovery.o(i.discovery_error_evt_trigger)
    i.elapsed_ticks_acquire                  0x0001d518   Section        0  app_timer.o(i.elapsed_ticks_acquire)
    elapsed_ticks_acquire                    0x0001d519   Thumb Code    58  app_timer.o(i.elapsed_ticks_acquire)
    i.encryption_failure                     0x0001d558   Section        0  security_dispatcher.o(i.encryption_failure)
    encryption_failure                       0x0001d559   Thumb Code    38  security_dispatcher.o(i.encryption_failure)
    i.events_send_from_err_code              0x0001d588   Section        0  security_manager.o(i.events_send_from_err_code)
    events_send_from_err_code                0x0001d589   Thumb Code    50  security_manager.o(i.events_send_from_err_code)
    i.evt_send                               0x0001d5bc   Section        0  id_manager.o(i.evt_send)
    evt_send                                 0x0001d5bd   Thumb Code    28  id_manager.o(i.evt_send)
    i.evt_send                               0x0001d5dc   Section        0  peer_manager.o(i.evt_send)
    evt_send                                 0x0001d5dd   Thumb Code    30  peer_manager.o(i.evt_send)
    i.evt_send                               0x0001d600   Section        0  security_dispatcher.o(i.evt_send)
    evt_send                                 0x0001d601   Thumb Code    28  security_dispatcher.o(i.evt_send)
    i.evt_send                               0x0001d620   Section        0  security_manager.o(i.evt_send)
    evt_send                                 0x0001d621   Thumb Code    28  security_manager.o(i.evt_send)
    i.fds_clear                              0x0001d640   Section        0  fds.o(i.fds_clear)
    i.fds_clear_by_instance                  0x0001d680   Section        0  fds.o(i.fds_clear_by_instance)
    i.fds_close                              0x0001d6c4   Section        0  fds.o(i.fds_close)
    i.fds_descriptor_from_rec_id             0x0001d6f4   Section        0  fds.o(i.fds_descriptor_from_rec_id)
    i.fds_evt_handler                        0x0001d708   Section        0  peer_data_storage.o(i.fds_evt_handler)
    fds_evt_handler                          0x0001d709   Thumb Code   174  peer_data_storage.o(i.fds_evt_handler)
    i.fds_find                               0x0001d7bc   Section        0  fds.o(i.fds_find)
    i.fds_find_by_type                       0x0001d7ca   Section        0  fds.o(i.fds_find_by_type)
    i.fds_init                               0x0001d7da   Section        0  fds.o(i.fds_init)
    i.fds_open                               0x0001d86c   Section        0  fds.o(i.fds_open)
    i.fds_record_id_from_desc                0x0001d8c4   Section        0  fds.o(i.fds_record_id_from_desc)
    i.fds_register                           0x0001d8d8   Section        0  fds.o(i.fds_register)
    i.fds_reserve                            0x0001d8fc   Section        0  fds.o(i.fds_reserve)
    i.fds_reserve_cancel                     0x0001d930   Section        0  fds.o(i.fds_reserve_cancel)
    i.fds_update                             0x0001d978   Section        0  fds.o(i.fds_update)
    i.fds_write                              0x0001d988   Section        0  fds.o(i.fds_write)
    i.fds_write_reserved                     0x0001d996   Section        0  fds.o(i.fds_write_reserved)
    i.find_next_valid                        0x0001d9b4   Section        0  fds.o(i.find_next_valid)
    find_next_valid                          0x0001d9b5   Thumb Code    78  fds.o(i.find_next_valid)
    i.find_record                            0x0001da08   Section        0  fds.o(i.find_record)
    find_record                              0x0001da09   Thumb Code   104  fds.o(i.find_record)
    i.find_record_by_key                     0x0001da78   Section        0  fds.o(i.find_record_by_key)
    find_record_by_key                       0x0001da79   Thumb Code   192  fds.o(i.find_record_by_key)
    i.flag_clear                             0x0001db48   Section        0  fds.o(i.flag_clear)
    flag_clear                               0x0001db49   Thumb Code    10  fds.o(i.flag_clear)
    i.flag_id_init                           0x0001db58   Section        0  security_dispatcher.o(i.flag_id_init)
    flag_id_init                             0x0001db59   Thumb Code    18  security_dispatcher.o(i.flag_id_init)
    i.flag_id_init                           0x0001db6a   Section        0  security_manager.o(i.flag_id_init)
    flag_id_init                             0x0001db6b   Thumb Code    18  security_manager.o(i.flag_id_init)
    i.flag_is_set                            0x0001db7c   Section        0  fds.o(i.flag_is_set)
    flag_is_set                              0x0001db7d   Thumb Code    16  fds.o(i.flag_is_set)
    i.flag_set                               0x0001db90   Section        0  fds.o(i.flag_set)
    flag_set                                 0x0001db91   Thumb Code    10  fds.o(i.flag_set)
    i.flags_set_from_err_code                0x0001dba0   Section        0  security_manager.o(i.flags_set_from_err_code)
    flags_set_from_err_code                  0x0001dba1   Thumb Code    92  security_manager.o(i.flags_set_from_err_code)
    i.fs_callback                            0x0001dc00   Section        0  fds.o(i.fs_callback)
    fs_callback                              0x0001dc01   Thumb Code    12  fds.o(i.fs_callback)
    i.fs_erase                               0x0001dc0c   Section        0  fstorage.o(i.fs_erase)
    i.fs_init                                0x0001dc70   Section        0  fstorage.o(i.fs_init)
    i.fs_store                               0x0001dcec   Section        0  fstorage.o(i.fs_store)
    i.fs_sys_event_handler                   0x0001dd50   Section        0  fstorage.o(i.fs_sys_event_handler)
    i.gc_copy_record                         0x0001ddcc   Section        0  fds.o(i.gc_copy_record)
    gc_copy_record                           0x0001ddcd   Thumb Code    60  fds.o(i.gc_copy_record)
    i.gc_erase_swap                          0x0001de14   Section        0  fds.o(i.gc_erase_swap)
    gc_erase_swap                            0x0001de15   Thumb Code    26  fds.o(i.gc_erase_swap)
    i.gc_execute                             0x0001de3c   Section        0  fds.o(i.gc_execute)
    gc_execute                               0x0001de3d   Thumb Code   182  fds.o(i.gc_execute)
    i.gc_swap                                0x0001defc   Section        0  fds.o(i.gc_swap)
    gc_swap                                  0x0001defd   Thumb Code    54  fds.o(i.gc_swap)
    i.gccm_evt_handler                       0x0001df40   Section        0  gatt_cache_manager.o(i.gccm_evt_handler)
    gccm_evt_handler                         0x0001df41   Thumb Code     2  gatt_cache_manager.o(i.gccm_evt_handler)
    i.gccm_init                              0x0001df44   Section        0  gattc_cache_manager.o(i.gccm_init)
    i.gcm_ble_evt_handler                    0x0001df68   Section        0  gatt_cache_manager.o(i.gcm_ble_evt_handler)
    i.gcm_evt_handler                        0x0001e04c   Section        0  peer_manager.o(i.gcm_evt_handler)
    i.gcm_init                               0x0001e0cc   Section        0  gatt_cache_manager.o(i.gcm_init)
    i.gcm_local_database_has_changed         0x0001e148   Section        0  gatt_cache_manager.o(i.gcm_local_database_has_changed)
    i.get_connection_by_conn_handle          0x0001e194   Section        0  id_manager.o(i.get_connection_by_conn_handle)
    i.get_free_connection                    0x0001e1cc   Section        0  id_manager.o(i.get_free_connection)
    i.gpiote_event_handler                   0x0001e1fc   Section        0  app_button.o(i.gpiote_event_handler)
    gpiote_event_handler                     0x0001e1fd   Thumb Code    72  app_button.o(i.gpiote_event_handler)
    i.gscm_evt_handler                       0x0001e24c   Section        0  gatt_cache_manager.o(i.gscm_evt_handler)
    gscm_evt_handler                         0x0001e24d   Thumb Code    92  gatt_cache_manager.o(i.gscm_evt_handler)
    i.gscm_init                              0x0001e2b0   Section        0  gatts_cache_manager.o(i.gscm_init)
    i.gscm_local_database_has_changed        0x0001e2d4   Section        0  gatts_cache_manager.o(i.gscm_local_database_has_changed)
    i.gscm_local_db_cache_apply              0x0001e314   Section        0  gatts_cache_manager.o(i.gscm_local_db_cache_apply)
    i.gscm_local_db_cache_update             0x0001e398   Section        0  gatts_cache_manager.o(i.gscm_local_db_cache_update)
    i.gscm_peer_was_notified_of_db_change    0x0001e430   Section        0  gatts_cache_manager.o(i.gscm_peer_was_notified_of_db_change)
    i.gscm_service_changed_ind_needed        0x0001e45c   Section        0  gatts_cache_manager.o(i.gscm_service_changed_ind_needed)
    i.gscm_service_changed_ind_send          0x0001e47c   Section        0  gatts_cache_manager.o(i.gscm_service_changed_ind_send)
    i.header_is_valid                        0x0001e4b0   Section        0  fds.o(i.header_is_valid)
    header_is_valid                          0x0001e4b1   Thumb Code    22  fds.o(i.header_is_valid)
    i.heart_rate_measurement_char_add        0x0001e4cc   Section        0  ble_hrs.o(i.heart_rate_measurement_char_add)
    heart_rate_measurement_char_add          0x0001e4cd   Thumb Code   172  ble_hrs.o(i.heart_rate_measurement_char_add)
    i.hrm_encode                             0x0001e57c   Section        0  ble_hrs.o(i.hrm_encode)
    hrm_encode                               0x0001e57d   Thumb Code   136  ble_hrs.o(i.hrm_encode)
    i.hrs_c_evt_handler                      0x0001e604   Section        0  main.o(i.hrs_c_evt_handler)
    hrs_c_evt_handler                        0x0001e605   Thumb Code    80  main.o(i.hrs_c_evt_handler)
    i.im_address_resolve                     0x0001e660   Section        0  id_manager.o(i.im_address_resolve)
    i.im_ble_addr_get                        0x0001e6a0   Section        0  id_manager.o(i.im_ble_addr_get)
    i.im_ble_evt_handler                     0x0001e6dc   Section        0  id_manager.o(i.im_ble_evt_handler)
    i.im_conn_handle_get                     0x0001e790   Section        0  id_manager.o(i.im_conn_handle_get)
    i.im_evt_handler                         0x0001e7bc   Section        0  gatt_cache_manager.o(i.im_evt_handler)
    im_evt_handler                           0x0001e7bd   Thumb Code    40  gatt_cache_manager.o(i.im_evt_handler)
    i.im_evt_handler                         0x0001e7e8   Section        0  peer_manager.o(i.im_evt_handler)
    i.im_master_id_is_valid                  0x0001e834   Section        0  id_manager.o(i.im_master_id_is_valid)
    i.im_new_peer_id                         0x0001e850   Section        0  id_manager.o(i.im_new_peer_id)
    i.im_peer_id_get_by_conn_handle          0x0001e86c   Section        0  id_manager.o(i.im_peer_id_get_by_conn_handle)
    i.im_peer_id_get_by_master_id            0x0001e894   Section        0  id_manager.o(i.im_peer_id_get_by_master_id)
    i.im_register                            0x0001e8dc   Section        0  id_manager.o(i.im_register)
    i.init_execute                           0x0001e954   Section        0  fds.o(i.init_execute)
    init_execute                             0x0001e955   Thumb Code   178  fds.o(i.init_execute)
    i.intern_softdevice_events_execute       0x0001ea18   Section        0  softdevice_handler.o(i.intern_softdevice_events_execute)
    i.is_conn_params_ok                      0x0001ea90   Section        0  ble_conn_params.o(i.is_conn_params_ok)
    is_conn_params_ok                        0x0001ea91   Thumb Code    24  ble_conn_params.o(i.is_conn_params_ok)
    i.is_desc_discovery_reqd                 0x0001eaac   Section        0  ble_db_discovery.o(i.is_desc_discovery_reqd)
    is_desc_discovery_reqd                   0x0001eaad   Thumb Code    66  ble_db_discovery.o(i.is_desc_discovery_reqd)
    i.is_duplicate_bonding_data              0x0001eaee   Section        0  id_manager.o(i.is_duplicate_bonding_data)
    i.is_manual_peripheral_setup_needed      0x0001eb28   Section        0  system_nrf51.o(i.is_manual_peripheral_setup_needed)
    is_manual_peripheral_setup_needed        0x0001eb29   Thumb Code    66  system_nrf51.o(i.is_manual_peripheral_setup_needed)
    i.is_valid_irk                           0x0001eb70   Section        0  id_manager.o(i.is_valid_irk)
    i.le_role_encode                         0x0001eb86   Section        0  ble_advdata.o(i.le_role_encode)
    le_role_encode                           0x0001eb87   Thumb Code    84  ble_advdata.o(i.le_role_encode)
    i.leds_timer_handler                     0x0001ebdc   Section        0  bsp.o(i.leds_timer_handler)
    leds_timer_handler                       0x0001ebdd   Thumb Code    18  bsp.o(i.leds_timer_handler)
    i.link_secure                            0x0001ebf4   Section        0  security_manager.o(i.link_secure)
    link_secure                              0x0001ebf5   Thumb Code   150  security_manager.o(i.link_secure)
    i.link_secure_central                    0x0001ec94   Section        0  security_dispatcher.o(i.link_secure_central)
    link_secure_central                      0x0001ec95   Thumb Code   130  security_dispatcher.o(i.link_secure_central)
    i.link_secure_central_existing_peer      0x0001ed1c   Section        0  security_dispatcher.o(i.link_secure_central_existing_peer)
    link_secure_central_existing_peer        0x0001ed1d   Thumb Code   206  security_dispatcher.o(i.link_secure_central_existing_peer)
    i.link_secure_central_new_peer           0x0001edec   Section        0  security_dispatcher.o(i.link_secure_central_new_peer)
    link_secure_central_new_peer             0x0001eded   Thumb Code   110  security_dispatcher.o(i.link_secure_central_new_peer)
    i.link_secure_pending_process            0x0001ee60   Section        0  security_manager.o(i.link_secure_pending_process)
    link_secure_pending_process              0x0001ee61   Thumb Code    86  security_manager.o(i.link_secure_pending_process)
    i.list_deletions_handler                 0x0001eebc   Section        0  app_timer.o(i.list_deletions_handler)
    list_deletions_handler                   0x0001eebd   Thumb Code   180  app_timer.o(i.list_deletions_handler)
    i.list_insertions_handler                0x0001ef78   Section        0  app_timer.o(i.list_insertions_handler)
    list_insertions_handler                  0x0001ef79   Thumb Code   202  app_timer.o(i.list_insertions_handler)
    i.local_db_apply_in_evt                  0x0001f04c   Section        0  gatt_cache_manager.o(i.local_db_apply_in_evt)
    local_db_apply_in_evt                    0x0001f04d   Thumb Code   106  gatt_cache_manager.o(i.local_db_apply_in_evt)
    i.local_db_update_in_evt                 0x0001f0c4   Section        0  gatt_cache_manager.o(i.local_db_update_in_evt)
    local_db_update_in_evt                   0x0001f0c5   Thumb Code   112  gatt_cache_manager.o(i.local_db_update_in_evt)
    i.lock_by_mask                           0x0001f13c   Section        0  pm_mutex.o(i.lock_by_mask)
    lock_by_mask                             0x0001f13d   Thumb Code    90  pm_mutex.o(i.lock_by_mask)
    i.log_uart_init                          0x0001f198   Section        0  nrf_log.o(i.log_uart_init)
    i.main                                   0x0001f1e4   Section        0  main.o(i.main)
    i.manuf_specific_data_encode             0x0001f388   Section        0  ble_advdata.o(i.manuf_specific_data_encode)
    manuf_specific_data_encode               0x0001f389   Thumb Code   104  ble_advdata.o(i.manuf_specific_data_encode)
    i.master_id_compare                      0x0001f3f0   Section        0  id_manager.o(i.master_id_compare)
    i.name_encode                            0x0001f41c   Section        0  ble_advdata.o(i.name_encode)
    name_encode                              0x0001f41d   Thumb Code   158  ble_advdata.o(i.name_encode)
    i.new_connection                         0x0001f4bc   Section        0  id_manager.o(i.new_connection)
    i.nrf_drv_common_irq_enable              0x0001f518   Section        0  nrf_drv_common.o(i.nrf_drv_common_irq_enable)
    i.nrf_drv_gpiote_in_event_enable         0x0001f578   Section        0  nrf_drv_gpiote.o(i.nrf_drv_gpiote_in_event_enable)
    i.nrf_drv_gpiote_in_init                 0x0001f618   Section        0  nrf_drv_gpiote.o(i.nrf_drv_gpiote_in_init)
    i.nrf_drv_gpiote_in_is_set               0x0001f6bc   Section        0  nrf_drv_gpiote.o(i.nrf_drv_gpiote_in_is_set)
    i.nrf_drv_gpiote_init                    0x0001f6d0   Section        0  nrf_drv_gpiote.o(i.nrf_drv_gpiote_init)
    i.nrf_drv_gpiote_is_init                 0x0001f724   Section        0  nrf_drv_gpiote.o(i.nrf_drv_gpiote_is_init)
    i.nrf_drv_uart_init                      0x0001f734   Section        0  nrf_drv_uart.o(i.nrf_drv_uart_init)
    i.nrf_drv_uart_rx                        0x0001f7fc   Section        0  nrf_drv_uart.o(i.nrf_drv_uart_rx)
    i.nrf_drv_uart_rx_enable                 0x0001f848   Section        0  nrf_drv_uart.o(i.nrf_drv_uart_rx_enable)
    i.nrf_drv_uart_rx_for_uart               0x0001f860   Section        0  nrf_drv_uart.o(i.nrf_drv_uart_rx_for_uart)
    nrf_drv_uart_rx_for_uart                 0x0001f861   Thumb Code   144  nrf_drv_uart.o(i.nrf_drv_uart_rx_for_uart)
    i.nrf_gpio_cfg                           0x0001f8fc   Section        0  nrf_drv_gpiote.o(i.nrf_gpio_cfg)
    nrf_gpio_cfg                             0x0001f8fd   Thumb Code    32  nrf_drv_gpiote.o(i.nrf_gpio_cfg)
    i.nrf_gpio_cfg                           0x0001f920   Section        0  nrf_drv_uart.o(i.nrf_gpio_cfg)
    nrf_gpio_cfg                             0x0001f921   Thumb Code    32  nrf_drv_uart.o(i.nrf_gpio_cfg)
    i.nrf_gpio_cfg_input                     0x0001f944   Section        0  nrf_drv_uart.o(i.nrf_gpio_cfg_input)
    nrf_gpio_cfg_input                       0x0001f945   Thumb Code    18  nrf_drv_uart.o(i.nrf_gpio_cfg_input)
    i.nrf_gpio_cfg_output                    0x0001f956   Section        0  nrf_drv_uart.o(i.nrf_gpio_cfg_output)
    nrf_gpio_cfg_output                      0x0001f957   Thumb Code    20  nrf_drv_uart.o(i.nrf_gpio_cfg_output)
    i.nrf_gpio_cfg_sense_set                 0x0001f96c   Section        0  nrf_drv_gpiote.o(i.nrf_gpio_cfg_sense_set)
    nrf_gpio_cfg_sense_set                   0x0001f96d   Thumb Code    26  nrf_drv_gpiote.o(i.nrf_gpio_cfg_sense_set)
    i.nrf_gpiote_event_is_set                0x0001f98c   Section        0  nrf_drv_gpiote.o(i.nrf_gpiote_event_is_set)
    nrf_gpiote_event_is_set                  0x0001f98d   Thumb Code    14  nrf_drv_gpiote.o(i.nrf_gpiote_event_is_set)
    i.nrf_uart_event_check                   0x0001f9a0   Section        0  nrf_drv_uart.o(i.nrf_uart_event_check)
    nrf_uart_event_check                     0x0001f9a1   Thumb Code    10  nrf_drv_uart.o(i.nrf_uart_event_check)
    i.nrf_uart_int_enable_check              0x0001f9aa   Section        0  nrf_drv_uart.o(i.nrf_uart_int_enable_check)
    nrf_uart_int_enable_check                0x0001f9ab   Thumb Code    16  nrf_drv_uart.o(i.nrf_uart_int_enable_check)
    i.on_adv_evt                             0x0001f9bc   Section        0  main.o(i.on_adv_evt)
    on_adv_evt                               0x0001f9bd   Thumb Code    40  main.o(i.on_adv_evt)
    i.on_ble_central_evt                     0x0001f9e8   Section        0  main.o(i.on_ble_central_evt)
    on_ble_central_evt                       0x0001f9e9   Thumb Code   354  main.o(i.on_ble_central_evt)
    i.on_characteristic_discovery_rsp        0x0001fb68   Section        0  ble_db_discovery.o(i.on_characteristic_discovery_rsp)
    on_characteristic_discovery_rsp          0x0001fb69   Thumb Code   188  ble_db_discovery.o(i.on_characteristic_discovery_rsp)
    i.on_descriptor_discovery_rsp            0x0001fc24   Section        0  ble_db_discovery.o(i.on_descriptor_discovery_rsp)
    on_descriptor_discovery_rsp              0x0001fc25   Thumb Code   150  ble_db_discovery.o(i.on_descriptor_discovery_rsp)
    i.on_hvx                                 0x0001fcc0   Section        0  ble_rscs_c.o(i.on_hvx)
    on_hvx                                   0x0001fcc1   Thumb Code   122  ble_rscs_c.o(i.on_hvx)
    i.on_srv_disc_completion                 0x0001fd3c   Section        0  ble_db_discovery.o(i.on_srv_disc_completion)
    on_srv_disc_completion                   0x0001fd3d   Thumb Code    84  ble_db_discovery.o(i.on_srv_disc_completion)
    i.page_id_within_bounds                  0x0001fd98   Section        0  fds.o(i.page_id_within_bounds)
    page_id_within_bounds                    0x0001fd99   Thumb Code    12  fds.o(i.page_id_within_bounds)
    i.page_scan                              0x0001fda4   Section        0  fds.o(i.page_scan)
    page_scan                                0x0001fda5   Thumb Code    86  fds.o(i.page_scan)
    i.page_tag_write_swap                    0x0001fe00   Section        0  fds.o(i.page_tag_write_swap)
    page_tag_write_swap                      0x0001fe01   Thumb Code    18  fds.o(i.page_tag_write_swap)
    i.page_tag_write_valid                   0x0001fe20   Section        0  fds.o(i.page_tag_write_valid)
    page_tag_write_valid                     0x0001fe21   Thumb Code    16  fds.o(i.page_tag_write_valid)
    i.pages_init                             0x0001fe38   Section        0  fds.o(i.pages_init)
    pages_init                               0x0001fe39   Thumb Code   168  fds.o(i.pages_init)
    i.pairing_failure                        0x0001fef4   Section        0  security_dispatcher.o(i.pairing_failure)
    pairing_failure                          0x0001fef5   Thumb Code    70  security_dispatcher.o(i.pairing_failure)
    i.params_reply_pending_process           0x0001ff44   Section        0  security_manager.o(i.params_reply_pending_process)
    params_reply_pending_process             0x0001ff45   Thumb Code    60  security_manager.o(i.params_reply_pending_process)
    i.pdb_clear                              0x0001ff80   Section        0  peer_database.o(i.pdb_clear)
    i.pdb_evt_handler                        0x0001ff98   Section        0  gattc_cache_manager.o(i.pdb_evt_handler)
    pdb_evt_handler                          0x0001ff99   Thumb Code    22  gattc_cache_manager.o(i.pdb_evt_handler)
    i.pdb_evt_handler                        0x0001ffb4   Section        0  gatts_cache_manager.o(i.pdb_evt_handler)
    pdb_evt_handler                          0x0001ffb5   Thumb Code    60  gatts_cache_manager.o(i.pdb_evt_handler)
    i.pdb_evt_handler                        0x0001fff4   Section        0  id_manager.o(i.pdb_evt_handler)
    pdb_evt_handler                          0x0001fff5   Thumb Code   116  id_manager.o(i.pdb_evt_handler)
    i.pdb_evt_handler                        0x0002006c   Section        0  peer_manager.o(i.pdb_evt_handler)
    i.pdb_evt_handler                        0x000200ec   Section        0  security_dispatcher.o(i.pdb_evt_handler)
    pdb_evt_handler                          0x000200ed   Thumb Code    46  security_dispatcher.o(i.pdb_evt_handler)
    i.pdb_evt_handler                        0x00020120   Section        0  security_manager.o(i.pdb_evt_handler)
    pdb_evt_handler                          0x00020121   Thumb Code    46  security_manager.o(i.pdb_evt_handler)
    i.pdb_evt_send                           0x00020154   Section        0  peer_database.o(i.pdb_evt_send)
    pdb_evt_send                             0x00020155   Thumb Code    28  peer_database.o(i.pdb_evt_send)
    i.pdb_next_peer_id_get                   0x00020174   Section        0  peer_database.o(i.pdb_next_peer_id_get)
    i.pdb_peer_allocate                      0x00020190   Section        0  peer_database.o(i.pdb_peer_allocate)
    i.pdb_peer_free                          0x000201ac   Section        0  peer_database.o(i.pdb_peer_free)
    i.pdb_raw_store                          0x000201c4   Section        0  peer_database.o(i.pdb_raw_store)
    i.pdb_read_buf_get                       0x000201e8   Section        0  peer_database.o(i.pdb_read_buf_get)
    i.pdb_register                           0x00020200   Section        0  peer_database.o(i.pdb_register)
    i.pdb_write_buf_get                      0x00020280   Section        0  peer_database.o(i.pdb_write_buf_get)
    i.pdb_write_buf_release                  0x000203c0   Section        0  peer_database.o(i.pdb_write_buf_release)
    i.pdb_write_buf_store                    0x000203fc   Section        0  peer_database.o(i.pdb_write_buf_store)
    i.pdb_write_buf_store_prepare            0x00020504   Section        0  peer_database.o(i.pdb_write_buf_store_prepare)
    i.pds_evt_handler                        0x0002056c   Section        0  peer_database.o(i.pds_evt_handler)
    pds_evt_handler                          0x0002056d   Thumb Code   254  peer_database.o(i.pds_evt_handler)
    i.pds_next_peer_id_get                   0x00020670   Section        0  peer_data_storage.o(i.pds_next_peer_id_get)
    i.pds_peer_data_clear                    0x0002069c   Section        0  peer_data_storage.o(i.pds_peer_data_clear)
    i.pds_peer_data_read_ptr_get             0x00020710   Section        0  peer_data_storage.o(i.pds_peer_data_read_ptr_get)
    i.pds_peer_data_update                   0x000207a4   Section        0  peer_data_storage.o(i.pds_peer_data_update)
    i.pds_peer_data_write                    0x0002084c   Section        0  peer_data_storage.o(i.pds_peer_data_write)
    i.pds_peer_data_write_prepare            0x000208f0   Section        0  peer_data_storage.o(i.pds_peer_data_write_prepare)
    i.pds_peer_data_write_prepare_cancel     0x00020930   Section        0  peer_data_storage.o(i.pds_peer_data_write_prepare_cancel)
    i.pds_peer_data_write_prepared           0x0002095c   Section        0  peer_data_storage.o(i.pds_peer_data_write_prepared)
    i.pds_peer_id_allocate                   0x00020a0c   Section        0  peer_data_storage.o(i.pds_peer_id_allocate)
    i.pds_peer_id_free                       0x00020a38   Section        0  peer_data_storage.o(i.pds_peer_id_free)
    i.pds_peer_id_is_allocated               0x00020a88   Section        0  peer_data_storage.o(i.pds_peer_id_is_allocated)
    i.pds_register                           0x00020aac   Section        0  peer_data_storage.o(i.pds_register)
    i.peer_address_exists                    0x00020b08   Section        0  ble_advertising.o(i.peer_address_exists)
    peer_address_exists                      0x00020b09   Thumb Code    22  ble_advertising.o(i.peer_address_exists)
    i.peer_data_const_point_to_buffer        0x00020b1e   Section        0  peer_database.o(i.peer_data_const_point_to_buffer)
    peer_data_const_point_to_buffer          0x00020b1f   Thumb Code    10  peer_database.o(i.peer_data_const_point_to_buffer)
    i.peer_data_parts_get                    0x00020b28   Section        0  peer_data.o(i.peer_data_parts_get)
    i.peer_data_point_to_buffer              0x00020b84   Section        0  peer_database.o(i.peer_data_point_to_buffer)
    peer_data_point_to_buffer                0x00020b85   Thumb Code    74  peer_database.o(i.peer_data_point_to_buffer)
    i.peer_id_allocate                       0x00020bd0   Section        0  peer_id.o(i.peer_id_allocate)
    i.peer_id_free                           0x00020c10   Section        0  peer_id.o(i.peer_id_free)
    i.peer_id_init                           0x00020c24   Section        0  peer_id.o(i.peer_id_init)
    i.peer_id_is_allocated                   0x00020c40   Section        0  peer_id.o(i.peer_id_is_allocated)
    i.peer_id_next_id_get                    0x00020c58   Section        0  peer_id.o(i.peer_id_next_id_get)
    i.peer_ids_init                          0x00020c90   Section        0  peer_data_storage.o(i.peer_ids_init)
    peer_ids_init                            0x00020c91   Thumb Code    78  peer_data_storage.o(i.peer_ids_init)
    i.peer_manager_init                      0x00020ce4   Section        0  main.o(i.peer_manager_init)
    peer_manager_init                        0x00020ce5   Thumb Code   108  main.o(i.peer_manager_init)
    i.pending_user_evts_send                 0x00020d54   Section        0  ble_db_discovery.o(i.pending_user_evts_send)
    pending_user_evts_send                   0x00020d55   Thumb Code    34  ble_db_discovery.o(i.pending_user_evts_send)
    i.pin_in_use_by_port                     0x00020d80   Section        0  nrf_drv_gpiote.o(i.pin_in_use_by_port)
    pin_in_use_by_port                       0x00020d81   Thumb Code    20  nrf_drv_gpiote.o(i.pin_in_use_by_port)
    i.pin_in_use_by_te                       0x00020d98   Section        0  nrf_drv_gpiote.o(i.pin_in_use_by_te)
    pin_in_use_by_te                         0x00020d99   Thumb Code    20  nrf_drv_gpiote.o(i.pin_in_use_by_te)
    i.pm_ble_evt_handler                     0x00020db0   Section        0  peer_manager.o(i.pm_ble_evt_handler)
    i.pm_buffer_block_acquire                0x00020dd4   Section        0  pm_buffer.o(i.pm_buffer_block_acquire)
    i.pm_buffer_init                         0x00020e32   Section        0  pm_buffer.o(i.pm_buffer_init)
    i.pm_buffer_ptr_get                      0x00020e74   Section        0  pm_buffer.o(i.pm_buffer_ptr_get)
    i.pm_buffer_release                      0x00020ea2   Section        0  pm_buffer.o(i.pm_buffer_release)
    i.pm_evt_handler                         0x00020ecc   Section        0  main.o(i.pm_evt_handler)
    pm_evt_handler                           0x00020ecd   Thumb Code    64  main.o(i.pm_evt_handler)
    i.pm_init                                0x00020f0c   Section        0  peer_manager.o(i.pm_init)
    i.pm_link_secure                         0x00020f70   Section        0  peer_manager.o(i.pm_link_secure)
    i.pm_local_database_has_changed          0x00020f88   Section        0  peer_manager.o(i.pm_local_database_has_changed)
    i.pm_mutex_init                          0x00020f90   Section        0  pm_mutex.o(i.pm_mutex_init)
    i.pm_mutex_lock                          0x00020fa0   Section        0  pm_mutex.o(i.pm_mutex_lock)
    i.pm_mutex_lock_first_available          0x00020fbc   Section        0  pm_mutex.o(i.pm_mutex_lock_first_available)
    i.pm_mutex_lock_status_get               0x00020ff0   Section        0  pm_mutex.o(i.pm_mutex_lock_status_get)
    i.pm_mutex_unlock                        0x00021008   Section        0  pm_mutex.o(i.pm_mutex_unlock)
    i.pm_peer_delete_all                     0x00021068   Section        0  peer_manager.o(i.pm_peer_delete_all)
    i.pm_register                            0x0002108c   Section        0  peer_manager.o(i.pm_register)
    i.pm_sec_params_set                      0x000210b8   Section        0  peer_manager.o(i.pm_sec_params_set)
    i.pstorage_access_status_get             0x000210d8   Section        0  pstorage.o(i.pstorage_access_status_get)
    i.queue_advance                          0x00021100   Section        0  fstorage.o(i.queue_advance)
    queue_advance                            0x00021101   Thumb Code    42  fstorage.o(i.queue_advance)
    i.queue_process                          0x00021134   Section        0  fstorage.o(i.queue_process)
    queue_process                            0x00021135   Thumb Code   130  fstorage.o(i.queue_process)
    i.queue_reserve                          0x000211c0   Section        0  fds.o(i.queue_reserve)
    queue_reserve                            0x000211c1   Thumb Code    82  fds.o(i.queue_reserve)
    i.registered_handler_get                 0x00021218   Section        0  ble_db_discovery.o(i.registered_handler_get)
    registered_handler_get                   0x00021219   Thumb Code    50  ble_db_discovery.o(i.registered_handler_get)
    i.rsc_feature_char_add                   0x00021254   Section        0  ble_rscs.o(i.rsc_feature_char_add)
    rsc_feature_char_add                     0x00021255   Thumb Code   136  ble_rscs.o(i.rsc_feature_char_add)
    i.rsc_measurement_char_add               0x000212e0   Section        0  ble_rscs.o(i.rsc_measurement_char_add)
    rsc_measurement_char_add                 0x000212e1   Thumb Code   170  ble_rscs.o(i.rsc_measurement_char_add)
    i.rsc_measurement_encode                 0x00021390   Section        0  ble_rscs.o(i.rsc_measurement_encode)
    rsc_measurement_encode                   0x00021391   Thumb Code   100  ble_rscs.o(i.rsc_measurement_encode)
    i.rscs_c_evt_handler                     0x000213f4   Section        0  main.o(i.rscs_c_evt_handler)
    rscs_c_evt_handler                       0x000213f5   Thumb Code   110  main.o(i.rscs_c_evt_handler)
    i.rtc1_stop                              0x00021470   Section        0  app_timer.o(i.rtc1_stop)
    rtc1_stop                                0x00021471   Thumb Code    50  app_timer.o(i.rtc1_stop)
    i.rx_byte                                0x000214b4   Section        0  nrf_drv_uart.o(i.rx_byte)
    rx_byte                                  0x000214b5   Thumb Code    42  nrf_drv_uart.o(i.rx_byte)
    i.rx_done_event                          0x000214ec   Section        0  nrf_drv_uart.o(i.rx_done_event)
    rx_done_event                            0x000214ed   Thumb Code    22  nrf_drv_uart.o(i.rx_done_event)
    i.rx_enable                              0x00021508   Section        0  nrf_drv_uart.o(i.rx_enable)
    rx_enable                                0x00021509   Thumb Code    22  nrf_drv_uart.o(i.rx_enable)
    i.scan_start                             0x00021524   Section        0  main.o(i.scan_start)
    scan_start                               0x00021525   Thumb Code    22  main.o(i.scan_start)
    i.sd_check_ram_start                     0x00021540   Section        0  softdevice_handler.o(i.sd_check_ram_start)
    i.sdk_mapped_flags_bulk_update_by_key    0x00021550   Section        0  sdk_mapped_flags.o(i.sdk_mapped_flags_bulk_update_by_key)
    i.sdk_mapped_flags_first_key_index_get   0x00021598   Section        0  sdk_mapped_flags.o(i.sdk_mapped_flags_first_key_index_get)
    i.sdk_mapped_flags_get_by_index          0x000215c0   Section        0  sdk_mapped_flags.o(i.sdk_mapped_flags_get_by_index)
    sdk_mapped_flags_get_by_index            0x000215c1   Thumb Code    16  sdk_mapped_flags.o(i.sdk_mapped_flags_get_by_index)
    i.sdk_mapped_flags_get_by_key            0x000215d0   Section        0  sdk_mapped_flags.o(i.sdk_mapped_flags_get_by_key)
    i.sdk_mapped_flags_key_list_get          0x000215f6   Section        0  sdk_mapped_flags.o(i.sdk_mapped_flags_key_list_get)
    i.sdk_mapped_flags_n_flags_set           0x0002163c   Section        0  sdk_mapped_flags.o(i.sdk_mapped_flags_n_flags_set)
    i.sdk_mapped_flags_update_by_key         0x0002165c   Section        0  sdk_mapped_flags.o(i.sdk_mapped_flags_update_by_key)
    i.sec_info_request_process               0x0002166c   Section        0  security_dispatcher.o(i.sec_info_request_process)
    sec_info_request_process                 0x0002166d   Thumb Code   164  security_dispatcher.o(i.sec_info_request_process)
    i.sec_params_verify                      0x00021714   Section        0  security_manager.o(i.sec_params_verify)
    sec_params_verify                        0x00021715   Thumb Code   110  security_manager.o(i.sec_params_verify)
    i.sec_proc_start                         0x00021784   Section        0  security_dispatcher.o(i.sec_proc_start)
    sec_proc_start                           0x00021785   Thumb Code    72  security_dispatcher.o(i.sec_proc_start)
    i.sec_start_send                         0x000217d0   Section        0  security_dispatcher.o(i.sec_start_send)
    sec_start_send                           0x000217d1   Thumb Code    24  security_dispatcher.o(i.sec_start_send)
    i.service_changed_pending_flags_check    0x000217ec   Section        0  gatt_cache_manager.o(i.service_changed_pending_flags_check)
    service_changed_pending_flags_check      0x000217ed   Thumb Code   138  gatt_cache_manager.o(i.service_changed_pending_flags_check)
    i.service_data_encode                    0x00021884   Section        0  ble_advdata.o(i.service_data_encode)
    service_data_encode                      0x00021885   Thumb Code   142  ble_advdata.o(i.service_data_encode)
    i.services_init                          0x00021914   Section        0  main.o(i.services_init)
    services_init                            0x00021915   Thumb Code   166  main.o(i.services_init)
    i.sm_ble_evt_handler                     0x000219c0   Section        0  security_manager.o(i.sm_ble_evt_handler)
    i.sm_evt_handler                         0x000219dc   Section        0  peer_manager.o(i.sm_evt_handler)
    i.sm_link_secure                         0x00021b18   Section        0  security_manager.o(i.sm_link_secure)
    i.sm_register                            0x00021b38   Section        0  security_manager.o(i.sm_register)
    i.sm_sec_params_set                      0x00021bc8   Section        0  security_manager.o(i.sm_sec_params_set)
    i.smd_ble_evt_handler                    0x00021c08   Section        0  security_dispatcher.o(i.smd_ble_evt_handler)
    i.smd_evt_handler                        0x00021ce8   Section        0  gatt_cache_manager.o(i.smd_evt_handler)
    smd_evt_handler                          0x00021ce9   Thumb Code    16  gatt_cache_manager.o(i.smd_evt_handler)
    i.smd_evt_handler                        0x00021cf8   Section        0  security_manager.o(i.smd_evt_handler)
    smd_evt_handler                          0x00021cf9   Thumb Code   114  security_manager.o(i.smd_evt_handler)
    i.smd_link_secure                        0x00021d70   Section        0  security_dispatcher.o(i.smd_link_secure)
    i.smd_params_reply                       0x00021db8   Section        0  security_dispatcher.o(i.smd_params_reply)
    i.smd_params_reply_perform               0x00021ed8   Section        0  security_manager.o(i.smd_params_reply_perform)
    smd_params_reply_perform                 0x00021ed9   Thumb Code    50  security_manager.o(i.smd_params_reply_perform)
    i.smd_register                           0x00021f10   Section        0  security_dispatcher.o(i.smd_register)
    i.softdevice_ble_evt_handler_set         0x00021f74   Section        0  softdevice_handler.o(i.softdevice_ble_evt_handler_set)
    i.softdevice_enable                      0x00021f88   Section        0  softdevice_handler.o(i.softdevice_enable)
    i.softdevice_enable_get_default_config   0x00021f9c   Section        0  softdevice_handler.o(i.softdevice_enable_get_default_config)
    i.softdevice_fault_handler               0x00021fc4   Section        0  softdevice_handler.o(i.softdevice_fault_handler)
    i.softdevice_handler_init                0x00021fcc   Section        0  softdevice_handler.o(i.softdevice_handler_init)
    i.softdevice_sys_evt_handler_set         0x00021ffc   Section        0  softdevice_handler.o(i.softdevice_sys_evt_handler_set)
    i.store_execute                          0x00022010   Section        0  fds.o(i.store_execute)
    store_execute                            0x00022011   Thumb Code   364  fds.o(i.store_execute)
    i.sys_evt_dispatch                       0x0002218c   Section        0  main.o(i.sys_evt_dispatch)
    sys_evt_dispatch                         0x0002218d   Thumb Code    16  main.o(i.sys_evt_dispatch)
    i.timer_list_handler                     0x0002219c   Section        0  app_timer.o(i.timer_list_handler)
    timer_list_handler                       0x0002219d   Thumb Code   128  app_timer.o(i.timer_list_handler)
    i.timer_list_handler_sched               0x00022220   Section        0  app_timer.o(i.timer_list_handler_sched)
    timer_list_handler_sched                 0x00022221   Thumb Code    10  app_timer.o(i.timer_list_handler_sched)
    i.timer_list_insert                      0x00022230   Section        0  app_timer.o(i.timer_list_insert)
    timer_list_insert                        0x00022231   Thumb Code    60  app_timer.o(i.timer_list_insert)
    i.timer_timeouts_check                   0x00022270   Section        0  app_timer.o(i.timer_timeouts_check)
    timer_timeouts_check                     0x00022271   Thumb Code   118  app_timer.o(i.timer_timeouts_check)
    i.tx_buffer_process                      0x000222f0   Section        0  ble_hrs_c.o(i.tx_buffer_process)
    tx_buffer_process                        0x000222f1   Thumb Code    58  ble_hrs_c.o(i.tx_buffer_process)
    i.tx_buffer_process                      0x00022334   Section        0  ble_rscs_c.o(i.tx_buffer_process)
    tx_buffer_process                        0x00022335   Thumb Code    58  ble_rscs_c.o(i.tx_buffer_process)
    i.tx_byte                                0x00022378   Section        0  nrf_drv_uart.o(i.tx_byte)
    tx_byte                                  0x00022379   Thumb Code    30  nrf_drv_uart.o(i.tx_byte)
    i.tx_done_event                          0x000223a4   Section        0  nrf_drv_uart.o(i.tx_done_event)
    tx_done_event                            0x000223a5   Thumb Code    26  nrf_drv_uart.o(i.tx_done_event)
    i.uart_error_cb                          0x000223c4   Section        0  nrf_log.o(i.uart_error_cb)
    i.uart_event_handler                     0x000223d8   Section        0  app_uart.o(i.uart_event_handler)
    i.uart_irq_handler                       0x00022430   Section        0  nrf_drv_uart.o(i.uart_irq_handler)
    uart_irq_handler                         0x00022431   Thumb Code   278  nrf_drv_uart.o(i.uart_irq_handler)
    i.uint16_encode                          0x00022558   Section        0  ble_advdata.o(i.uint16_encode)
    uint16_encode                            0x00022559   Thumb Code    10  ble_advdata.o(i.uint16_encode)
    i.update_page_offsets                    0x00022562   Section        0  fds.o(i.update_page_offsets)
    update_page_offsets                      0x00022563   Thumb Code    18  fds.o(i.update_page_offsets)
    i.update_timeout_handler                 0x00022574   Section        0  ble_conn_params.o(i.update_timeout_handler)
    update_timeout_handler                   0x00022575   Thumb Code    86  ble_conn_params.o(i.update_timeout_handler)
    i.user_flag_is_acquired                  0x000225d8   Section        0  ble_conn_state.o(i.user_flag_is_acquired)
    user_flag_is_acquired                    0x000225d9   Thumb Code    20  ble_conn_state.o(i.user_flag_is_acquired)
    i.user_id_get                            0x000225f0   Section        0  app_timer.o(i.user_id_get)
    user_id_get                              0x000225f1   Thumb Code    74  app_timer.o(i.user_id_get)
    i.user_op_alloc                          0x00022644   Section        0  app_timer.o(i.user_op_alloc)
    user_op_alloc                            0x00022645   Thumb Code    38  app_timer.o(i.user_op_alloc)
    i.uuid_list_encode                       0x0002266a   Section        0  ble_advdata.o(i.uuid_list_encode)
    uuid_list_encode                         0x0002266b   Thumb Code    48  ble_advdata.o(i.uuid_list_encode)
    i.uuid_list_sized_encode                 0x0002269a   Section        0  ble_advdata.o(i.uuid_list_sized_encode)
    uuid_list_sized_encode                   0x0002269b   Thumb Code   174  ble_advdata.o(i.uuid_list_sized_encode)
    i.whitelist_has_entries                  0x00022748   Section        0  ble_advertising.o(i.whitelist_has_entries)
    whitelist_has_entries                    0x00022749   Thumb Code    16  ble_advertising.o(i.whitelist_has_entries)
    i.write_buffer_record_find               0x00022758   Section        0  peer_database.o(i.write_buffer_record_find)
    write_buffer_record_find                 0x00022759   Thumb Code    46  peer_database.o(i.write_buffer_record_find)
    i.write_buffer_record_invalidate         0x0002278c   Section        0  peer_database.o(i.write_buffer_record_invalidate)
    write_buffer_record_invalidate           0x0002278d   Thumb Code    36  peer_database.o(i.write_buffer_record_invalidate)
    i.write_buffer_record_release            0x000227b0   Section        0  peer_database.o(i.write_buffer_record_release)
    write_buffer_record_release              0x000227b1   Thumb Code    38  peer_database.o(i.write_buffer_record_release)
    i.write_chunks                           0x000227dc   Section        0  fds.o(i.write_chunks)
    write_chunks                             0x000227dd   Thumb Code    72  fds.o(i.write_chunks)
    i.write_enqueue                          0x0002282c   Section        0  fds.o(i.write_enqueue)
    write_enqueue                            0x0002282d   Thumb Code   278  fds.o(i.write_enqueue)
    i.write_or_update                        0x00022950   Section        0  peer_database.o(i.write_or_update)
    write_or_update                          0x00022951   Thumb Code    76  peer_database.o(i.write_or_update)
    i.write_space_reserve                    0x0002299c   Section        0  fds.o(i.write_space_reserve)
    write_space_reserve                      0x0002299d   Thumb Code    70  fds.o(i.write_space_reserve)
    .constdata                               0x000229e8   Section       24  main.o(.constdata)
    m_connection_param                       0x000229e8   Data           8  main.o(.constdata)
    m_scan_param                             0x000229f0   Data          16  main.o(.constdata)
    .constdata                               0x00022a00   Section       60  bsp.o(.constdata)
    m_leds_timer_id                          0x00022a00   Data           4  bsp.o(.constdata)
    m_alert_timer_id                         0x00022a04   Data           4  bsp.o(.constdata)
    m_button_timer_id                        0x00022a08   Data           4  bsp.o(.constdata)
    m_buttons_list                           0x00022a0c   Data          16  bsp.o(.constdata)
    app_buttons                              0x00022a1c   Data          32  bsp.o(.constdata)
    .constdata                               0x00022a3c   Section        4  ble_conn_params.o(.constdata)
    m_conn_params_timer_id                   0x00022a3c   Data           4  ble_conn_params.o(.constdata)
    .constdata                               0x00022a40   Section        1  gatts_cache_manager.o(.constdata)
    service_changed_pending                  0x00022a40   Data           1  gatts_cache_manager.o(.constdata)
    .constdata                               0x00022a44   Section       16  gatts_cache_manager.o(.constdata)
    .constdata                               0x00022a54   Section        1  gatts_cache_manager.o(.constdata)
    service_changed_pending                  0x00022a54   Data           1  gatts_cache_manager.o(.constdata)
    .constdata                               0x00022a58   Section       84  security_dispatcher.o(.constdata)
    .constdata                               0x00022aac   Section       32  app_uart.o(.constdata)
    .constdata                               0x00022acc   Section       32  nrf_drv_uart.o(.constdata)
    m_default_config                         0x00022acc   Data          32  nrf_drv_uart.o(.constdata)
    .constdata                               0x00022aec   Section        8  app_button.o(.constdata)
    m_detection_delay_timer_id               0x00022aec   Data           4  app_button.o(.constdata)
    .constdata                               0x00022af4   Section       20  fds.o(.constdata)
    m_fds_tl_invalid                         0x00022af4   Data           4  fds.o(.constdata)
    fds_page_tag_swap                        0x00022af8   Data           8  fds.o(.constdata)
    fds_page_tag_valid                       0x00022b00   Data           8  fds.o(.constdata)
    .constdata                               0x00022b08   Section       12  nrf_log.o(.constdata)
    .data                                    0x20002f80   Section       26  main.o(.data)
    m_conn_handle_hrs_c                      0x20002f80   Data           2  main.o(.data)
    m_conn_handle_rscs_c                     0x20002f82   Data           2  main.o(.data)
    periph_addr_hrs                          0x20002f84   Data           7  main.o(.data)
    periph_addr_rsc                          0x20002f8b   Data           7  main.o(.data)
    m_adv_uuids                              0x20002f92   Data           8  main.o(.data)
    .data                                    0x20002f9c   Section       24  bsp.o(.data)
    m_stable_state                           0x20002f9c   Data           1  bsp.o(.data)
    current_long_push_pin_no                 0x20002f9d   Data           1  bsp.o(.data)
    m_app_ticks_per_100ms                    0x20002fa0   Data           4  bsp.o(.data)
    m_indication_type                        0x20002fa4   Data           4  bsp.o(.data)
    m_alert_mask                             0x20002fa8   Data           4  bsp.o(.data)
    m_registered_callback                    0x20002fac   Data           4  bsp.o(.data)
    release_event_at_push                    0x20002fb0   Data           4  bsp.o(.data)
    .data                                    0x20002fb4   Section        8  bsp_btn_ble.o(.data)
    m_error_handler                          0x20002fb4   Data           4  bsp_btn_ble.o(.data)
    m_num_connections                        0x20002fb8   Data           4  bsp_btn_ble.o(.data)
    .data                                    0x20002fbc   Section        4  system_nrf51.o(.data)
    __tagsym$$used                           0x20002fbc   Number         0  system_nrf51.o(.data)
    .data                                    0x20002fc0   Section       31  ble_advertising.o(.data)
    m_advertising_start_pending              0x20002fc0   Data           1  ble_advertising.o(.data)
    m_whitelist_temporarily_disabled         0x20002fc1   Data           1  ble_advertising.o(.data)
    m_whitelist_reply_expected               0x20002fc2   Data           1  ble_advertising.o(.data)
    m_peer_addr_reply_expected               0x20002fc3   Data           1  ble_advertising.o(.data)
    m_adv_evt                                0x20002fc4   Data           1  ble_advertising.o(.data)
    m_adv_mode_current                       0x20002fc5   Data           1  ble_advertising.o(.data)
    m_tx_power_level                         0x20002fc6   Data           1  ble_advertising.o(.data)
    current_slave_link_conn_handle           0x20002fc8   Data           2  ble_advertising.o(.data)
    m_evt_handler                            0x20002fcc   Data           4  ble_advertising.o(.data)
    m_error_handler                          0x20002fd0   Data           4  ble_advertising.o(.data)
    m_slave_conn_int                         0x20002fd4   Data           4  ble_advertising.o(.data)
    m_peer_address                           0x20002fd8   Data           7  ble_advertising.o(.data)
    .data                                    0x20002fe0   Section       20  ble_conn_params.o(.data)
    m_change_param                           0x20002fe0   Data           1  ble_conn_params.o(.data)
    m_update_count                           0x20002fe1   Data           1  ble_conn_params.o(.data)
    m_conn_handle                            0x20002fe2   Data           2  ble_conn_params.o(.data)
    m_preferred_conn_params                  0x20002fe4   Data           8  ble_conn_params.o(.data)
    m_current_conn_params                    0x20002fec   Data           8  ble_conn_params.o(.data)
    .data                                    0x20002ff4   Section       12  ble_db_discovery.o(.data)
    m_initialized                            0x20002ff4   Data           1  ble_db_discovery.o(.data)
    m_pending_usr_evt_index                  0x20002ff8   Data           4  ble_db_discovery.o(.data)
    m_num_of_handlers_reg                    0x20002ffc   Data           4  ble_db_discovery.o(.data)
    .data                                    0x20003000   Section        8  gatt_cache_manager.o(.data)
    m_gcm                                    0x20003000   Data           8  gatt_cache_manager.o(.data)
    .data                                    0x20003008   Section        4  gattc_cache_manager.o(.data)
    m_gccm                                   0x20003008   Data           4  gattc_cache_manager.o(.data)
    .data                                    0x2000300c   Section        8  gatts_cache_manager.o(.data)
    start_handle                             0x2000300c   Data           2  gatts_cache_manager.o(.data)
    m_gscm                                   0x20003010   Data           4  gatts_cache_manager.o(.data)
    .data                                    0x20003014   Section        1  peer_database.o(.data)
    mutex_memory                             0x20003014   Data           1  peer_database.o(.data)
    .data                                    0x20003018   Section       16  security_dispatcher.o(.data)
    m_smd                                    0x20003018   Data          16  security_dispatcher.o(.data)
    .data                                    0x20003028   Section       28  security_manager.o(.data)
    m_sm                                     0x20003028   Data          28  security_manager.o(.data)
    .data                                    0x20003044   Section       12  ble_hrs_c.o(.data)
    m_tx_insert_index                        0x20003044   Data           4  ble_hrs_c.o(.data)
    m_tx_index                               0x20003048   Data           4  ble_hrs_c.o(.data)
    mp_ble_hrs_c                             0x2000304c   Data           4  ble_hrs_c.o(.data)
    .data                                    0x20003050   Section       12  ble_rscs_c.o(.data)
    m_tx_insert_index                        0x20003050   Data           4  ble_rscs_c.o(.data)
    m_tx_index                               0x20003054   Data           4  ble_rscs_c.o(.data)
    mp_ble_rscs_c                            0x20003058   Data           4  ble_rscs_c.o(.data)
    .data                                    0x2000305c   Section        8  app_uart.o(.data)
    tx_buffer                                0x2000305c   Data           1  app_uart.o(.data)
    rx_buffer                                0x2000305d   Data           1  app_uart.o(.data)
    rx_done                                  0x2000305e   Data           1  app_uart.o(.data)
    m_event_handler                          0x20003060   Data           4  app_uart.o(.data)
    .data                                    0x20003064   Section       36  pstorage.o(.data)
    m_state                                  0x20003064   Data           1  pstorage.o(.data)
    m_swap_sub_state                         0x20003065   Data           1  pstorage.o(.data)
    m_next_app_instance                      0x20003066   Data           2  pstorage.o(.data)
    m_flags                                  0x20003068   Data           4  pstorage.o(.data)
    m_next_page_addr                         0x2000306c   Data           4  pstorage.o(.data)
    m_head_word_size                         0x20003070   Data           4  pstorage.o(.data)
    m_tail_word_size                         0x20003074   Data           4  pstorage.o(.data)
    m_current_page_id                        0x20003078   Data           4  pstorage.o(.data)
    m_num_of_command_retries                 0x2000307c   Data           4  pstorage.o(.data)
    m_num_of_bytes_written                   0x20003080   Data           4  pstorage.o(.data)
    m_app_data_size                          0x20003084   Data           4  pstorage.o(.data)
    .data                                    0x20003088   Section       20  app_button.o(.data)
    m_button_count                           0x20003088   Data           1  app_button.o(.data)
    mp_buttons                               0x2000308c   Data           4  app_button.o(.data)
    m_detection_delay                        0x20003090   Data           4  app_button.o(.data)
    m_pin_state                              0x20003094   Data           4  app_button.o(.data)
    m_pin_transition                         0x20003098   Data           4  app_button.o(.data)
    .data                                    0x2000309c   Section       32  app_timer.o(.data)
    m_user_array_size                        0x2000309c   Data           1  app_timer.o(.data)
    m_ticks_elapsed_q_read_ind               0x2000309d   Data           1  app_timer.o(.data)
    m_ticks_elapsed_q_write_ind              0x2000309e   Data           1  app_timer.o(.data)
    m_rtc1_running                           0x2000309f   Data           1  app_timer.o(.data)
    m_rtc1_reset                             0x200030a0   Data           1  app_timer.o(.data)
    mp_users                                 0x200030a4   Data           4  app_timer.o(.data)
    mp_timer_id_head                         0x200030a8   Data           4  app_timer.o(.data)
    m_ticks_latest                           0x200030ac   Data           4  app_timer.o(.data)
    m_evt_schedule_func                      0x200030b0   Data           4  app_timer.o(.data)
    m_ticks_elapsed                          0x200030b4   Data           8  app_timer.o(.data)
    .data                                    0x200030bc   Section       16  fds.o(.data)
    m_flags                                  0x200030bc   Data           1  fds.o(.data)
    m_users                                  0x200030bd   Data           1  fds.o(.data)
    m_last_rec_id                            0x200030c0   Data           4  fds.o(.data)
    m_swap_page                              0x200030c4   Data           8  fds.o(.data)
    .data                                    0x200030cc   Section        4  fstorage.o(.data)
    m_flags                                  0x200030cc   Data           1  fstorage.o(.data)
    m_retry_count                            0x200030ce   Data           2  fstorage.o(.data)
    .data                                    0x200030d0   Section        5  nrf_log.o(.data)
    initialized                              0x200030d0   Data           1  nrf_log.o(.data)
    rx_buf                                   0x200030d1   Data           1  nrf_log.o(.data)
    hex_string                               0x200030d2   Data           3  nrf_log.o(.data)
    .data                                    0x200030d8   Section       20  softdevice_handler.o(.data)
    m_softdevice_enabled                     0x200030d8   Data           1  softdevice_handler.o(.data)
    m_ble_evt_buffer_size                    0x200030da   Data           2  softdevice_handler.o(.data)
    m_evt_schedule_func                      0x200030dc   Data           4  softdevice_handler.o(.data)
    mp_ble_evt_buffer                        0x200030e0   Data           4  softdevice_handler.o(.data)
    m_ble_evt_handler                        0x200030e4   Data           4  softdevice_handler.o(.data)
    m_sys_evt_handler                        0x200030e8   Data           4  softdevice_handler.o(.data)
    fs_data                                  0x200030ec   Section       16  fds.o(fs_data)
    __tagsym$$used                           0x200030ec   Number         0  fds.o(fs_data)
    fs_config                                0x200030ec   Data          16  fds.o(fs_data)
    .bss                                     0x200030fc   Section      764  main.o(.bss)
    BLE_EVT_BUFFER                           0x200030fc   Data          72  main.o(.bss)
    APP_TIMER_BUF                            0x20003144   Data         312  main.o(.bss)
    m_ble_hrs_c                              0x2000327c   Data          12  main.o(.bss)
    m_ble_rsc_c                              0x20003288   Data          12  main.o(.bss)
    m_ble_db_discovery_hrs                   0x20003294   Data         124  main.o(.bss)
    m_ble_db_discovery_rsc                   0x20003310   Data         124  main.o(.bss)
    m_hrs                                    0x2000338c   Data          80  main.o(.bss)
    m_rscs                                   0x200033dc   Data          28  main.o(.bss)
    .bss                                     0x200033f8   Section       32  bsp.o(.bss)
    m_leds_timer_id_data                     0x200033f8   Data          32  bsp.o(.bss)
    .bss                                     0x20003418   Section       32  bsp.o(.bss)
    m_alert_timer_id_data                    0x20003418   Data          32  bsp.o(.bss)
    .bss                                     0x20003438   Section       12  bsp.o(.bss)
    m_events_list                            0x20003438   Data          12  bsp.o(.bss)
    .bss                                     0x20003444   Section       32  bsp.o(.bss)
    m_button_timer_id_data                   0x20003444   Data          32  bsp.o(.bss)
    .bss                                     0x20003464   Section      259  ble_advertising.o(.bss)
    m_advdata                                0x20003464   Data          56  ble_advertising.o(.bss)
    m_adv_modes_config                       0x2000349c   Data          36  ble_advertising.o(.bss)
    m_whitelist                              0x200034c0   Data          16  ble_advertising.o(.bss)
    mp_whitelist_addr                        0x200034d0   Data          32  ble_advertising.o(.bss)
    mp_whitelist_irk                         0x200034f0   Data          32  ble_advertising.o(.bss)
    m_manuf_specific_data                    0x20003510   Data          12  ble_advertising.o(.bss)
    m_manuf_data_array                       0x2000351c   Data          31  ble_advertising.o(.bss)
    m_service_data                           0x2000353c   Data          12  ble_advertising.o(.bss)
    m_service_data_array                     0x20003548   Data          31  ble_advertising.o(.bss)
    .bss                                     0x20003568   Section       32  ble_conn_params.o(.bss)
    m_conn_params_timer_id_data              0x20003568   Data          32  ble_conn_params.o(.bss)
    .bss                                     0x20003588   Section       28  ble_conn_params.o(.bss)
    m_conn_params_config                     0x20003588   Data          28  ble_conn_params.o(.bss)
    .bss                                     0x200035a4   Section       40  ble_conn_state.o(.bss)
    m_bcs                                    0x200035a4   Data          40  ble_conn_state.o(.bss)
    .bss                                     0x200035cc   Section      152  ble_db_discovery.o(.bss)
    m_registered_handlers                    0x200035cc   Data          16  ble_db_discovery.o(.bss)
    m_pending_user_evts                      0x200035dc   Data         136  ble_db_discovery.o(.bss)
    .bss                                     0x20003664   Section      312  id_manager.o(.bss)
    m_im                                     0x20003664   Data         312  id_manager.o(.bss)
    .bss                                     0x2000379c   Section       32  peer_data_storage.o(.bss)
    m_pds                                    0x2000379c   Data          32  peer_data_storage.o(.bss)
    .bss                                     0x200037bc   Section      848  peer_database.o(.bss)
    m_pdb                                    0x200037bc   Data         208  peer_database.o(.bss)
    buffer_memory                            0x2000388c   Data         640  peer_database.o(.bss)
    .bss                                     0x20003b0c   Section       32  peer_id.o(.bss)
    m_pi                                     0x20003b0c   Data          32  peer_id.o(.bss)
    .bss                                     0x20003b2c   Section       20  peer_manager.o(.bss)
    m_pm                                     0x20003b2c   Data          20  peer_manager.o(.bss)
    .bss                                     0x20003b40   Section      160  ble_hrs_c.o(.bss)
    m_tx_buffer                              0x20003b40   Data         160  ble_hrs_c.o(.bss)
    .bss                                     0x20003be0   Section      160  ble_rscs_c.o(.bss)
    m_tx_buffer                              0x20003be0   Data         160  ble_rscs_c.o(.bss)
    .bss                                     0x20003c80   Section      216  pstorage.o(.bss)
    m_cmd_queue                              0x20003c80   Data         204  pstorage.o(.bss)
    m_app_table                              0x20003d4c   Data          12  pstorage.o(.bss)
    .bss                                     0x20003d58   Section       72  nrf_drv_gpiote.o(.bss)
    m_cb                                     0x20003d58   Data          72  nrf_drv_gpiote.o(.bss)
    .bss                                     0x20003da0   Section       28  nrf_drv_uart.o(.bss)
    m_cb                                     0x20003da0   Data          28  nrf_drv_uart.o(.bss)
    .bss                                     0x20003dbc   Section       32  app_button.o(.bss)
    m_detection_delay_timer_id_data          0x20003dbc   Data          32  app_button.o(.bss)
    .bss                                     0x20003ddc   Section      236  fds.o(.bss)
    tok                                      0x20003ddc   Data          12  fds.o(.bss)
    m_cb_table                               0x20003de8   Data          12  fds.o(.bss)
    m_cmd_queue                              0x20003df4   Data         100  fds.o(.bss)
    m_chunk_queue                            0x20003e58   Data          68  fds.o(.bss)
    m_pages                                  0x20003e9c   Data          32  fds.o(.bss)
    m_gc                                     0x20003ebc   Data          12  fds.o(.bss)
    .bss                                     0x20003ec8   Section       84  fstorage.o(.bss)
    m_cmd_queue                              0x20003ec8   Data          84  fstorage.o(.bss)
    .bss                                     0x20003f1c   Section      267  nrf_log.o(.bss)
    tx_buf                                   0x20003f1c   Data         256  nrf_log.o(.bss)
    hex_string                               0x2000401c   Data          11  nrf_log.o(.bss)
    STACK                                    0x20004028   Section     2048  arm_startup_nrf51.o(STACK)

    Global Symbols

    Symbol Name                              Value     Ov Type        Size  Object(Section)

    BuildAttributes$$THM_ISAv3M$S$PE$A:L22$X:L11$S22$IEEE1$IW$USESV6$~STKCKD$USESV7$~SHL$OSPACE$ROPI$EBA8$MICROLIB$REQ8$PRES8$EABIv2 0x00000000   Number         0  anon$$obj.o ABSOLUTE
    __ARM_use_no_argv                        0x00000000   Number         0  main.o ABSOLUTE
    __cpp_initialize__aeabi_                  - Undefined Weak Reference
    __cxa_finalize                            - Undefined Weak Reference
    _clock_init                               - Undefined Weak Reference
    _microlib_exit                            - Undefined Weak Reference
    __Vectors_Size                           0x000000c0   Number         0  arm_startup_nrf51.o ABSOLUTE
    __Vectors                                0x0001b000   Data           4  arm_startup_nrf51.o(RESET)
    __Vectors_End                            0x0001b0c0   Data           0  arm_startup_nrf51.o(RESET)
    __main                                   0x0001b0c1   Thumb Code     0  entry.o(.ARM.Collect$$$$00000000)
    _main_stk                                0x0001b0c1   Thumb Code     0  entry2.o(.ARM.Collect$$$$00000001)
    _main_scatterload                        0x0001b0c5   Thumb Code     0  entry5.o(.ARM.Collect$$$$00000004)
    __main_after_scatterload                 0x0001b0c9   Thumb Code     0  entry5.o(.ARM.Collect$$$$00000004)
    _main_clock                              0x0001b0c9   Thumb Code     0  entry7b.o(.ARM.Collect$$$$00000008)
    _main_cpp_init                           0x0001b0c9   Thumb Code     0  entry8b.o(.ARM.Collect$$$$0000000A)
    _main_init                               0x0001b0c9   Thumb Code     0  entry9a.o(.ARM.Collect$$$$0000000B)
    __rt_final_cpp                           0x0001b0d1   Thumb Code     0  entry10a.o(.ARM.Collect$$$$0000000D)
    __rt_final_exit                          0x0001b0d1   Thumb Code     0  entry11a.o(.ARM.Collect$$$$0000000F)
    __asm___11_app_timer_c_cd27f9c3__nrf_delay_us 0x0001b0d5   Thumb Code    30  app_timer.o(.emb_text)
    Reset_Handler                            0x0001b0f5   Thumb Code    26  arm_startup_nrf51.o(.text)
    NMI_Handler                              0x0001b10f   Thumb Code     2  arm_startup_nrf51.o(.text)
    HardFault_Handler                        0x0001b111   Thumb Code     2  arm_startup_nrf51.o(.text)
    SVC_Handler                              0x0001b113   Thumb Code     2  arm_startup_nrf51.o(.text)
    PendSV_Handler                           0x0001b115   Thumb Code     2  arm_startup_nrf51.o(.text)
    SysTick_Handler                          0x0001b117   Thumb Code     2  arm_startup_nrf51.o(.text)
    ADC_IRQHandler                           0x0001b119   Thumb Code     0  arm_startup_nrf51.o(.text)
    CCM_AAR_IRQHandler                       0x0001b119   Thumb Code     0  arm_startup_nrf51.o(.text)
    ECB_IRQHandler                           0x0001b119   Thumb Code     0  arm_startup_nrf51.o(.text)
    LPCOMP_IRQHandler                        0x0001b119   Thumb Code     0  arm_startup_nrf51.o(.text)
    POWER_CLOCK_IRQHandler                   0x0001b119   Thumb Code     0  arm_startup_nrf51.o(.text)
    QDEC_IRQHandler                          0x0001b119   Thumb Code     0  arm_startup_nrf51.o(.text)
    RADIO_IRQHandler                         0x0001b119   Thumb Code     0  arm_startup_nrf51.o(.text)
    RNG_IRQHandler                           0x0001b119   Thumb Code     0  arm_startup_nrf51.o(.text)
    RTC0_IRQHandler                          0x0001b119   Thumb Code     0  arm_startup_nrf51.o(.text)
    SPI0_TWI0_IRQHandler                     0x0001b119   Thumb Code     0  arm_startup_nrf51.o(.text)
    SPI1_TWI1_IRQHandler                     0x0001b119   Thumb Code     0  arm_startup_nrf51.o(.text)
    SWI1_IRQHandler                          0x0001b119   Thumb Code     0  arm_startup_nrf51.o(.text)
    SWI3_IRQHandler                          0x0001b119   Thumb Code     0  arm_startup_nrf51.o(.text)
    SWI4_IRQHandler                          0x0001b119   Thumb Code     0  arm_startup_nrf51.o(.text)
    SWI5_IRQHandler                          0x0001b119   Thumb Code     0  arm_startup_nrf51.o(.text)
    TEMP_IRQHandler                          0x0001b119   Thumb Code     0  arm_startup_nrf51.o(.text)
    TIMER0_IRQHandler                        0x0001b119   Thumb Code     0  arm_startup_nrf51.o(.text)
    TIMER1_IRQHandler                        0x0001b119   Thumb Code     0  arm_startup_nrf51.o(.text)
    TIMER2_IRQHandler                        0x0001b119   Thumb Code     0  arm_startup_nrf51.o(.text)
    WDT_IRQHandler                           0x0001b119   Thumb Code     0  arm_startup_nrf51.o(.text)
    __aeabi_uidiv                            0x0001b12d   Thumb Code     0  uidiv.o(.text)
    __aeabi_uidivmod                         0x0001b12d   Thumb Code    44  uidiv.o(.text)
    ___aeabi_memcpy8$move                    0x0001b159   Thumb Code     0  memmovea.o(.text)
    __aeabi_memcpy                           0x0001b159   Thumb Code    64  memmovea.o(.text)
    __aeabi_memcpy4                          0x0001b159   Thumb Code     0  memmovea.o(.text)
    __aeabi_memmove                          0x0001b159   Thumb Code     0  memmovea.o(.text)
    __aeabi_memmove4                         0x0001b159   Thumb Code     0  memmovea.o(.text)
    __aeabi_memmove8                         0x0001b159   Thumb Code     0  memmovea.o(.text)
    __aeabi_memset                           0x0001b199   Thumb Code    14  memseta.o(.text)
    __aeabi_memset4                          0x0001b199   Thumb Code     0  memseta.o(.text)
    __aeabi_memset8                          0x0001b199   Thumb Code     0  memseta.o(.text)
    __aeabi_memclr                           0x0001b1a7   Thumb Code     4  memseta.o(.text)
    __aeabi_memclr4                          0x0001b1a7   Thumb Code     0  memseta.o(.text)
    __aeabi_memclr8                          0x0001b1a7   Thumb Code     0  memseta.o(.text)
    _memset$wrapper                          0x0001b1ab   Thumb Code    18  memseta.o(.text)
    memcmp                                   0x0001b1bd   Thumb Code    26  memcmp.o(.text)
    __aeabi_uread4                           0x0001b1d7   Thumb Code    20  uread4.o(.text)
    __rt_uread4                              0x0001b1d7   Thumb Code     0  uread4.o(.text)
    _uread4                                  0x0001b1d7   Thumb Code     0  uread4.o(.text)
    __scatterload                            0x0001b1ed   Thumb Code    28  init.o(.text)
    __scatterload_rt2                        0x0001b1ed   Thumb Code     0  init.o(.text)
    __decompress                             0x0001b211   Thumb Code     0  __dczerorl2.o(.text)
    __decompress1                            0x0001b211   Thumb Code    86  __dczerorl2.o(.text)
    GPIOTE_IRQHandler                        0x0001b269   Thumb Code   234  nrf_drv_gpiote.o(i.GPIOTE_IRQHandler)
    RTC1_IRQHandler                          0x0001b3d1   Thumb Code    28  app_timer.o(i.RTC1_IRQHandler)
    SWI0_IRQHandler                          0x0001b3f1   Thumb Code     8  app_timer.o(i.SWI0_IRQHandler)
    SWI2_IRQHandler                          0x0001b3f9   Thumb Code    28  softdevice_handler.o(i.SWI2_IRQHandler)
    SystemInit                               0x0001b419   Thumb Code    64  system_nrf51.o(i.SystemInit)
    UART0_IRQHandler                         0x0001b46d   Thumb Code     8  nrf_drv_uart.o(i.UART0_IRQHandler)
    __ARM_common_switch8                     0x0001b475   Thumb Code    26  main.o(i.__ARM_common_switch8)
    __scatterload_copy                       0x0001b48f   Thumb Code    14  handlers.o(i.__scatterload_copy)
    __scatterload_null                       0x0001b49d   Thumb Code     2  handlers.o(i.__scatterload_null)
    __scatterload_zeroinit                   0x0001b49f   Thumb Code    14  handlers.o(i.__scatterload_zeroinit)
    addr_compare                             0x0001b4ad   Thumb Code    40  id_manager.o(i.addr_compare)
    adv_data_encode                          0x0001b4d5   Thumb Code   534  ble_advdata.o(i.adv_data_encode)
    ah                                       0x0001b755   Thumb Code    78  id_manager.o(i.ah)
    app_button_enable                        0x0001b7bd   Thumb Code    32  app_button.o(i.app_button_enable)
    app_button_init                          0x0001b7e1   Thumb Code   100  app_button.o(i.app_button_init)
    app_error_fault_handler                  0x0001b855   Thumb Code    18  app_error.o(i.app_error_fault_handler)
    app_error_handler_bare                   0x0001b871   Thumb Code    18  app_error.o(i.app_error_handler_bare)
    app_timer_create                         0x0001b8ed   Thumb Code    40  app_timer.o(i.app_timer_create)
    app_timer_init                           0x0001b919   Thumb Code   126  app_timer.o(i.app_timer_init)
    app_timer_start                          0x0001b9a9   Thumb Code   114  app_timer.o(i.app_timer_start)
    app_timer_stop                           0x0001ba25   Thumb Code    78  app_timer.o(i.app_timer_stop)
    app_uart_init                            0x0001ba79   Thumb Code   118  app_uart.o(i.app_uart_init)
    ble_advdata_set                          0x0001bba5   Thumb Code   104  ble_advdata.o(i.ble_advdata_set)
    ble_advertising_init                     0x0001bc0d   Thumb Code   284  ble_advertising.o(i.ble_advertising_init)
    ble_advertising_on_ble_evt               0x0001bd31   Thumb Code   118  ble_advertising.o(i.ble_advertising_on_ble_evt)
    ble_advertising_on_sys_evt               0x0001bdad   Thumb Code    42  ble_advertising.o(i.ble_advertising_on_sys_evt)
    ble_advertising_start                    0x0001bded   Thumb Code   470  ble_advertising.o(i.ble_advertising_start)
    ble_conn_params_init                     0x0001bfcd   Thumb Code    68  ble_conn_params.o(i.ble_conn_params_init)
    ble_conn_params_on_ble_evt               0x0001c021   Thumb Code   132  ble_conn_params.o(i.ble_conn_params_on_ble_evt)
    ble_conn_state_conn_handles              0x0001c0b1   Thumb Code    14  ble_conn_state.o(i.ble_conn_state_conn_handles)
    ble_conn_state_encrypted                 0x0001c0c5   Thumb Code    16  ble_conn_state.o(i.ble_conn_state_encrypted)
    ble_conn_state_mitm_protected            0x0001c0d9   Thumb Code    16  ble_conn_state.o(i.ble_conn_state_mitm_protected)
    ble_conn_state_n_centrals                0x0001c0ed   Thumb Code    16  ble_conn_state.o(i.ble_conn_state_n_centrals)
    ble_conn_state_on_ble_evt                0x0001c101   Thumb Code   238  ble_conn_state.o(i.ble_conn_state_on_ble_evt)
    ble_conn_state_role                      0x0001c1f9   Thumb Code    46  ble_conn_state.o(i.ble_conn_state_role)
    ble_conn_state_user_flag_acquire         0x0001c22d   Thumb Code    42  ble_conn_state.o(i.ble_conn_state_user_flag_acquire)
    ble_conn_state_user_flag_collection      0x0001c25d   Thumb Code    20  ble_conn_state.o(i.ble_conn_state_user_flag_collection)
    ble_conn_state_user_flag_get             0x0001c275   Thumb Code    32  ble_conn_state.o(i.ble_conn_state_user_flag_get)
    ble_conn_state_user_flag_set             0x0001c299   Thumb Code    36  ble_conn_state.o(i.ble_conn_state_user_flag_set)
    ble_db_discovery_evt_register            0x0001c2c1   Thumb Code    66  ble_db_discovery.o(i.ble_db_discovery_evt_register)
    ble_db_discovery_init                    0x0001c30d   Thumb Code    16  ble_db_discovery.o(i.ble_db_discovery_init)
    ble_db_discovery_on_ble_evt              0x0001c321   Thumb Code   156  ble_db_discovery.o(i.ble_db_discovery_on_ble_evt)
    ble_db_discovery_start                   0x0001c3c1   Thumb Code    86  ble_db_discovery.o(i.ble_db_discovery_start)
    ble_hrs_c_hrm_notif_enable               0x0001c549   Thumb Code    68  ble_hrs_c.o(i.ble_hrs_c_hrm_notif_enable)
    ble_hrs_c_init                           0x0001c595   Thumb Code    52  ble_hrs_c.o(i.ble_hrs_c_init)
    ble_hrs_c_on_ble_evt                     0x0001c5d5   Thumb Code    84  ble_hrs_c.o(i.ble_hrs_c_on_ble_evt)
    ble_hrs_heart_rate_measurement_send      0x0001c629   Thumb Code    82  ble_hrs.o(i.ble_hrs_heart_rate_measurement_send)
    ble_hrs_init                             0x0001c681   Thumb Code    86  ble_hrs.o(i.ble_hrs_init)
    ble_hrs_on_ble_evt                       0x0001c6dd   Thumb Code    80  ble_hrs.o(i.ble_hrs_on_ble_evt)
    ble_rscs_c_init                          0x0001c72d   Thumb Code    52  ble_rscs_c.o(i.ble_rscs_c_init)
    ble_rscs_c_on_ble_evt                    0x0001c76d   Thumb Code    42  ble_rscs_c.o(i.ble_rscs_c_on_ble_evt)
    ble_rscs_c_rsc_notif_enable              0x0001c799   Thumb Code    68  ble_rscs_c.o(i.ble_rscs_c_rsc_notif_enable)
    ble_rscs_init                            0x0001c7e5   Thumb Code    74  ble_rscs.o(i.ble_rscs_init)
    ble_rscs_measurement_send                0x0001c835   Thumb Code    92  ble_rscs.o(i.ble_rscs_measurement_send)
    ble_rscs_on_ble_evt                      0x0001c895   Thumb Code    88  ble_rscs.o(i.ble_rscs_on_ble_evt)
    bsp_btn_ble_init                         0x0001c9ed   Thumb Code    80  bsp_btn_ble.o(i.bsp_btn_ble_init)
    bsp_button_is_pressed                    0x0001cae1   Thumb Code    34  bsp.o(i.bsp_button_is_pressed)
    bsp_event_to_button_action_assign        0x0001cb0d   Thumb Code    66  bsp.o(i.bsp_event_to_button_action_assign)
    bsp_init                                 0x0001cb55   Thumb Code   134  bsp.o(i.bsp_init)
    chunk_queue_next                         0x0001cec9   Thumb Code    20  fds.o(i.chunk_queue_next)
    fds_clear                                0x0001d641   Thumb Code    64  fds.o(i.fds_clear)
    fds_clear_by_instance                    0x0001d681   Thumb Code    64  fds.o(i.fds_clear_by_instance)
    fds_close                                0x0001d6c5   Thumb Code    42  fds.o(i.fds_close)
    fds_descriptor_from_rec_id               0x0001d6f5   Thumb Code    20  fds.o(i.fds_descriptor_from_rec_id)
    fds_find                                 0x0001d7bd   Thumb Code    14  fds.o(i.fds_find)
    fds_find_by_type                         0x0001d7cb   Thumb Code    16  fds.o(i.fds_find_by_type)
    fds_init                                 0x0001d7db   Thumb Code   146  fds.o(i.fds_init)
    fds_open                                 0x0001d86d   Thumb Code    82  fds.o(i.fds_open)
    fds_record_id_from_desc                  0x0001d8c5   Thumb Code    20  fds.o(i.fds_record_id_from_desc)
    fds_register                             0x0001d8d9   Thumb Code    28  fds.o(i.fds_register)
    fds_reserve                              0x0001d8fd   Thumb Code    50  fds.o(i.fds_reserve)
    fds_reserve_cancel                       0x0001d931   Thumb Code    68  fds.o(i.fds_reserve_cancel)
    fds_update                               0x0001d979   Thumb Code    16  fds.o(i.fds_update)
    fds_write                                0x0001d989   Thumb Code    14  fds.o(i.fds_write)
    fds_write_reserved                       0x0001d997   Thumb Code    28  fds.o(i.fds_write_reserved)
    fs_erase                                 0x0001dc0d   Thumb Code    94  fstorage.o(i.fs_erase)
    fs_init                                  0x0001dc71   Thumb Code   102  fstorage.o(i.fs_init)
    fs_store                                 0x0001dced   Thumb Code    94  fstorage.o(i.fs_store)
    fs_sys_event_handler                     0x0001dd51   Thumb Code   114  fstorage.o(i.fs_sys_event_handler)
    gccm_init                                0x0001df45   Thumb Code    26  gattc_cache_manager.o(i.gccm_init)
    gcm_ble_evt_handler                      0x0001df69   Thumb Code   218  gatt_cache_manager.o(i.gcm_ble_evt_handler)
    gcm_evt_handler                          0x0001e04d   Thumb Code   128  peer_manager.o(i.gcm_evt_handler)
    gcm_init                                 0x0001e0cd   Thumb Code   102  gatt_cache_manager.o(i.gcm_init)
    gcm_local_database_has_changed           0x0001e149   Thumb Code    66  gatt_cache_manager.o(i.gcm_local_database_has_changed)
    get_connection_by_conn_handle            0x0001e195   Thumb Code    48  id_manager.o(i.get_connection_by_conn_handle)
    get_free_connection                      0x0001e1cd   Thumb Code    44  id_manager.o(i.get_free_connection)
    gscm_init                                0x0001e2b1   Thumb Code    26  gatts_cache_manager.o(i.gscm_init)
    gscm_local_database_has_changed          0x0001e2d5   Thumb Code    50  gatts_cache_manager.o(i.gscm_local_database_has_changed)
    gscm_local_db_cache_apply                0x0001e315   Thumb Code   122  gatts_cache_manager.o(i.gscm_local_db_cache_apply)
    gscm_local_db_cache_update               0x0001e399   Thumb Code   138  gatts_cache_manager.o(i.gscm_local_db_cache_update)
    gscm_peer_was_notified_of_db_change      0x0001e431   Thumb Code    36  gatts_cache_manager.o(i.gscm_peer_was_notified_of_db_change)
    gscm_service_changed_ind_needed          0x0001e45d   Thumb Code    30  gatts_cache_manager.o(i.gscm_service_changed_ind_needed)
    gscm_service_changed_ind_send            0x0001e47d   Thumb Code    38  gatts_cache_manager.o(i.gscm_service_changed_ind_send)
    im_address_resolve                       0x0001e661   Thumb Code    64  id_manager.o(i.im_address_resolve)
    im_ble_addr_get                          0x0001e6a1   Thumb Code    56  id_manager.o(i.im_ble_addr_get)
    im_ble_evt_handler                       0x0001e6dd   Thumb Code   172  id_manager.o(i.im_ble_evt_handler)
    im_conn_handle_get                       0x0001e791   Thumb Code    36  id_manager.o(i.im_conn_handle_get)
    im_evt_handler                           0x0001e7e9   Thumb Code    70  peer_manager.o(i.im_evt_handler)
    im_master_id_is_valid                    0x0001e835   Thumb Code    28  id_manager.o(i.im_master_id_is_valid)
    im_new_peer_id                           0x0001e851   Thumb Code    24  id_manager.o(i.im_new_peer_id)
    im_peer_id_get_by_conn_handle            0x0001e86d   Thumb Code    32  id_manager.o(i.im_peer_id_get_by_conn_handle)
    im_peer_id_get_by_master_id              0x0001e895   Thumb Code    68  id_manager.o(i.im_peer_id_get_by_master_id)
    im_register                              0x0001e8dd   Thumb Code   104  id_manager.o(i.im_register)
    intern_softdevice_events_execute         0x0001ea19   Thumb Code   116  softdevice_handler.o(i.intern_softdevice_events_execute)
    is_duplicate_bonding_data                0x0001eaef   Thumb Code    56  id_manager.o(i.is_duplicate_bonding_data)
    is_valid_irk                             0x0001eb71   Thumb Code    22  id_manager.o(i.is_valid_irk)
    log_uart_init                            0x0001f199   Thumb Code    60  nrf_log.o(i.log_uart_init)
    main                                     0x0001f1e5   Thumb Code   374  main.o(i.main)
    master_id_compare                        0x0001f3f1   Thumb Code    44  id_manager.o(i.master_id_compare)
    new_connection                           0x0001f4bd   Thumb Code    78  id_manager.o(i.new_connection)
    nrf_drv_common_irq_enable                0x0001f519   Thumb Code    78  nrf_drv_common.o(i.nrf_drv_common_irq_enable)
    nrf_drv_gpiote_in_event_enable           0x0001f579   Thumb Code   138  nrf_drv_gpiote.o(i.nrf_drv_gpiote_in_event_enable)
    nrf_drv_gpiote_in_init                   0x0001f619   Thumb Code   146  nrf_drv_gpiote.o(i.nrf_drv_gpiote_in_init)
    nrf_drv_gpiote_in_is_set                 0x0001f6bd   Thumb Code    16  nrf_drv_gpiote.o(i.nrf_drv_gpiote_in_is_set)
    nrf_drv_gpiote_init                      0x0001f6d1   Thumb Code    76  nrf_drv_gpiote.o(i.nrf_drv_gpiote_init)
    nrf_drv_gpiote_is_init                   0x0001f725   Thumb Code    12  nrf_drv_gpiote.o(i.nrf_drv_gpiote_is_init)
    nrf_drv_uart_init                        0x0001f735   Thumb Code   170  nrf_drv_uart.o(i.nrf_drv_uart_init)
    nrf_drv_uart_rx                          0x0001f7fd   Thumb Code    66  nrf_drv_uart.o(i.nrf_drv_uart_rx)
    nrf_drv_uart_rx_enable                   0x0001f849   Thumb Code    20  nrf_drv_uart.o(i.nrf_drv_uart_rx_enable)
    pdb_clear                                0x0001ff81   Thumb Code    20  peer_database.o(i.pdb_clear)
    pdb_evt_handler                          0x0002006d   Thumb Code   128  peer_manager.o(i.pdb_evt_handler)
    pdb_next_peer_id_get                     0x00020175   Thumb Code    20  peer_database.o(i.pdb_next_peer_id_get)
    pdb_peer_allocate                        0x00020191   Thumb Code    20  peer_database.o(i.pdb_peer_allocate)
    pdb_peer_free                            0x000201ad   Thumb Code    20  peer_database.o(i.pdb_peer_free)
    pdb_raw_store                            0x000201c5   Thumb Code    32  peer_database.o(i.pdb_raw_store)
    pdb_read_buf_get                         0x000201e9   Thumb Code    20  peer_database.o(i.pdb_read_buf_get)
    pdb_register                             0x00020201   Thumb Code   116  peer_database.o(i.pdb_register)
    pdb_write_buf_get                        0x00020281   Thumb Code   306  peer_database.o(i.pdb_write_buf_get)
    pdb_write_buf_release                    0x000203c1   Thumb Code    54  peer_database.o(i.pdb_write_buf_release)
    pdb_write_buf_store                      0x000203fd   Thumb Code   258  peer_database.o(i.pdb_write_buf_store)
    pdb_write_buf_store_prepare              0x00020505   Thumb Code    98  peer_database.o(i.pdb_write_buf_store_prepare)
    pds_next_peer_id_get                     0x00020671   Thumb Code    36  peer_data_storage.o(i.pds_next_peer_id_get)
    pds_peer_data_clear                      0x0002069d   Thumb Code   110  peer_data_storage.o(i.pds_peer_data_clear)
    pds_peer_data_read_ptr_get               0x00020711   Thumb Code   144  peer_data_storage.o(i.pds_peer_data_read_ptr_get)
    pds_peer_data_update                     0x000207a5   Thumb Code   164  peer_data_storage.o(i.pds_peer_data_update)
    pds_peer_data_write                      0x0002084d   Thumb Code   158  peer_data_storage.o(i.pds_peer_data_write)
    pds_peer_data_write_prepare              0x000208f1   Thumb Code    60  peer_data_storage.o(i.pds_peer_data_write_prepare)
    pds_peer_data_write_prepare_cancel       0x00020931   Thumb Code    38  peer_data_storage.o(i.pds_peer_data_write_prepare_cancel)
    pds_peer_data_write_prepared             0x0002095d   Thumb Code   170  peer_data_storage.o(i.pds_peer_data_write_prepared)
    pds_peer_id_allocate                     0x00020a0d   Thumb Code    36  peer_data_storage.o(i.pds_peer_id_allocate)
    pds_peer_id_free                         0x00020a39   Thumb Code    74  peer_data_storage.o(i.pds_peer_id_free)
    pds_peer_id_is_allocated                 0x00020a89   Thumb Code    30  peer_data_storage.o(i.pds_peer_id_is_allocated)
    pds_register                             0x00020aad   Thumb Code    82  peer_data_storage.o(i.pds_register)
    peer_data_parts_get                      0x00020b29   Thumb Code    92  peer_data.o(i.peer_data_parts_get)
    peer_id_allocate                         0x00020bd1   Thumb Code    54  peer_id.o(i.peer_id_allocate)
    peer_id_free                             0x00020c11   Thumb Code    16  peer_id.o(i.peer_id_free)
    peer_id_init                             0x00020c25   Thumb Code    22  peer_id.o(i.peer_id_init)
    peer_id_is_allocated                     0x00020c41   Thumb Code    20  peer_id.o(i.peer_id_is_allocated)
    peer_id_next_id_get                      0x00020c59   Thumb Code    46  peer_id.o(i.peer_id_next_id_get)
    pm_ble_evt_handler                       0x00020db1   Thumb Code    32  peer_manager.o(i.pm_ble_evt_handler)
    pm_buffer_block_acquire                  0x00020dd5   Thumb Code    94  pm_buffer.o(i.pm_buffer_block_acquire)
    pm_buffer_init                           0x00020e33   Thumb Code    66  pm_buffer.o(i.pm_buffer_init)
    pm_buffer_ptr_get                        0x00020e75   Thumb Code    46  pm_buffer.o(i.pm_buffer_ptr_get)
    pm_buffer_release                        0x00020ea3   Thumb Code    42  pm_buffer.o(i.pm_buffer_release)
    pm_init                                  0x00020f0d   Thumb Code    80  peer_manager.o(i.pm_init)
    pm_link_secure                           0x00020f71   Thumb Code    20  peer_manager.o(i.pm_link_secure)
    pm_local_database_has_changed            0x00020f89   Thumb Code     8  peer_manager.o(i.pm_local_database_has_changed)
    pm_mutex_init                            0x00020f91   Thumb Code    16  pm_mutex.o(i.pm_mutex_init)
    pm_mutex_lock                            0x00020fa1   Thumb Code    28  pm_mutex.o(i.pm_mutex_lock)
    pm_mutex_lock_first_available            0x00020fbd   Thumb Code    52  pm_mutex.o(i.pm_mutex_lock_first_available)
    pm_mutex_lock_status_get                 0x00020ff1   Thumb Code    24  pm_mutex.o(i.pm_mutex_lock_status_get)
    pm_mutex_unlock                          0x00021009   Thumb Code    96  pm_mutex.o(i.pm_mutex_unlock)
    pm_peer_delete_all                       0x00021069   Thumb Code    32  peer_manager.o(i.pm_peer_delete_all)
    pm_register                              0x0002108d   Thumb Code    38  peer_manager.o(i.pm_register)
    pm_sec_params_set                        0x000210b9   Thumb Code    26  peer_manager.o(i.pm_sec_params_set)
    pstorage_access_status_get               0x000210d9   Thumb Code    30  pstorage.o(i.pstorage_access_status_get)
    sd_check_ram_start                       0x00021541   Thumb Code    10  softdevice_handler.o(i.sd_check_ram_start)
    sdk_mapped_flags_bulk_update_by_key      0x00021551   Thumb Code    70  sdk_mapped_flags.o(i.sdk_mapped_flags_bulk_update_by_key)
    sdk_mapped_flags_first_key_index_get     0x00021599   Thumb Code    34  sdk_mapped_flags.o(i.sdk_mapped_flags_first_key_index_get)
    sdk_mapped_flags_get_by_key              0x000215d1   Thumb Code    38  sdk_mapped_flags.o(i.sdk_mapped_flags_get_by_key)
    sdk_mapped_flags_key_list_get            0x000215f7   Thumb Code    70  sdk_mapped_flags.o(i.sdk_mapped_flags_key_list_get)
    sdk_mapped_flags_n_flags_set             0x0002163d   Thumb Code    32  sdk_mapped_flags.o(i.sdk_mapped_flags_n_flags_set)
    sdk_mapped_flags_update_by_key           0x0002165d   Thumb Code    14  sdk_mapped_flags.o(i.sdk_mapped_flags_update_by_key)
    sm_ble_evt_handler                       0x000219c1   Thumb Code    22  security_manager.o(i.sm_ble_evt_handler)
    sm_evt_handler                           0x000219dd   Thumb Code   312  peer_manager.o(i.sm_evt_handler)
    sm_link_secure                           0x00021b19   Thumb Code    26  security_manager.o(i.sm_link_secure)
    sm_register                              0x00021b39   Thumb Code   132  security_manager.o(i.sm_register)
    sm_sec_params_set                        0x00021bc9   Thumb Code    58  security_manager.o(i.sm_sec_params_set)
    smd_ble_evt_handler                      0x00021c09   Thumb Code   216  security_dispatcher.o(i.smd_ble_evt_handler)
    smd_link_secure                          0x00021d71   Thumb Code    64  security_dispatcher.o(i.smd_link_secure)
    smd_params_reply                         0x00021db9   Thumb Code   274  security_dispatcher.o(i.smd_params_reply)
    smd_register                             0x00021f11   Thumb Code    90  security_dispatcher.o(i.smd_register)
    softdevice_ble_evt_handler_set           0x00021f75   Thumb Code    16  softdevice_handler.o(i.softdevice_ble_evt_handler_set)
    softdevice_enable                        0x00021f89   Thumb Code    14  softdevice_handler.o(i.softdevice_enable)
    softdevice_enable_get_default_config     0x00021f9d   Thumb Code    40  softdevice_handler.o(i.softdevice_enable_get_default_config)
    softdevice_fault_handler                 0x00021fc5   Thumb Code     8  softdevice_handler.o(i.softdevice_fault_handler)
    softdevice_handler_init                  0x00021fcd   Thumb Code    40  softdevice_handler.o(i.softdevice_handler_init)
    softdevice_sys_evt_handler_set           0x00021ffd   Thumb Code    16  softdevice_handler.o(i.softdevice_sys_evt_handler_set)
    uart_error_cb                            0x000223c5   Thumb Code    20  nrf_log.o(i.uart_error_cb)
    uart_event_handler                       0x000223d9   Thumb Code    84  app_uart.o(i.uart_event_handler)
    Region$$Table$$Base                      0x00022b14   Number         0  anon$$obj.o(Region$$Table)
    Region$$Table$$Limit                     0x00022b34   Number         0  anon$$obj.o(Region$$Table)
    Image$$RW_IRAM1$$Base                    0x20002f80   Number         0  anon$$obj.o ABSOLUTE
    SystemCoreClock                          0x20002fbc   Data           4  system_nrf51.o(.data)
    fs_data$$Base                            0x200030ec   Number         0  fds.o(fs_data)
    fs_data$$Limit                           0x200030fc   Number         0  fds.o(fs_data)
    __initial_sp                             0x20004828   Data           0  arm_startup_nrf51.o(STACK)



==============================================================================

Memory Map of the image

  Image Entry point : 0x0001b0c1

  Load Region LR_IROM1 (Base: 0x0001b000, Size: 0x00007cb0, Max: 0x00025000, ABSOLUTE, COMPRESSED[0x00007b58])

    Execution Region ER_IROM1 (Base: 0x0001b000, Size: 0x00007b34, Max: 0x00025000, ABSOLUTE)

    Base Addr    Size         Type   Attr      Idx    E Section Name        Object

    0x0001b000   0x000000c0   Data   RO          462    RESET               arm_startup_nrf51.o
    0x0001b0c0   0x00000000   Code   RO         4325  * .ARM.Collect$$$$00000000  mc_p.l(entry.o)
    0x0001b0c0   0x00000004   Code   RO         4378    .ARM.Collect$$$$00000001  mc_p.l(entry2.o)
    0x0001b0c4   0x00000004   Code   RO         4381    .ARM.Collect$$$$00000004  mc_p.l(entry5.o)
    0x0001b0c8   0x00000000   Code   RO         4383    .ARM.Collect$$$$00000008  mc_p.l(entry7b.o)
    0x0001b0c8   0x00000000   Code   RO         4385    .ARM.Collect$$$$0000000A  mc_p.l(entry8b.o)
    0x0001b0c8   0x00000008   Code   RO         4386    .ARM.Collect$$$$0000000B  mc_p.l(entry9a.o)
    0x0001b0d0   0x00000000   Code   RO         4388    .ARM.Collect$$$$0000000D  mc_p.l(entry10a.o)
    0x0001b0d0   0x00000000   Code   RO         4390    .ARM.Collect$$$$0000000F  mc_p.l(entry11a.o)
    0x0001b0d0   0x00000004   Code   RO         4379    .ARM.Collect$$$$00002712  mc_p.l(entry2.o)
    0x0001b0d4   0x0000001e   Code   RO         3546    .emb_text           app_timer.o
    0x0001b0f2   0x00000002   PAD
    0x0001b0f4   0x00000038   Code   RO          463    .text               arm_startup_nrf51.o
    0x0001b12c   0x0000002c   Code   RO         4328    .text               mc_p.l(uidiv.o)
    0x0001b158   0x00000040   Code   RO         4334    .text               mc_p.l(memmovea.o)
    0x0001b198   0x00000024   Code   RO         4336    .text               mc_p.l(memseta.o)
    0x0001b1bc   0x0000001a   Code   RO         4340    .text               mc_p.l(memcmp.o)
    0x0001b1d6   0x00000014   Code   RO         4376    .text               mc_p.l(uread4.o)
    0x0001b1ea   0x00000002   PAD
    0x0001b1ec   0x00000024   Code   RO         4405    .text               mc_p.l(init.o)
    0x0001b210   0x00000056   Code   RO         4425    .text               mc_p.l(__dczerorl2.o)
    0x0001b266   0x00000002   PAD
    0x0001b268   0x00000108   Code   RO         2932    i.GPIOTE_IRQHandler  nrf_drv_gpiote.o
    0x0001b370   0x00000044   Code   RO         3547    i.NVIC_SetPriority  app_timer.o
    0x0001b3b4   0x0000000c   Code   RO         1423    i.PM_PEER_DATA_ID_IS_VALID  peer_data_storage.o
    0x0001b3c0   0x0000000e   Code   RO         1574    i.PM_REMOTE_DB_N_WORDS  peer_database.o
    0x0001b3ce   0x00000002   PAD
    0x0001b3d0   0x00000020   Code   RO         3548    i.RTC1_IRQHandler   app_timer.o
    0x0001b3f0   0x00000008   Code   RO         3549    i.SWI0_IRQHandler   app_timer.o
    0x0001b3f8   0x00000020   Code   RO         4240    i.SWI2_IRQHandler   softdevice_handler.o
    0x0001b418   0x00000054   Code   RO          470    i.SystemInit        system_nrf51.o
    0x0001b46c   0x00000008   Code   RO         3122    i.UART0_IRQHandler  nrf_drv_uart.o
    0x0001b474   0x0000001a   Code   RO           94    i.__ARM_common_switch8  main.o
    0x0001b48e   0x0000000e   Code   RO         4419    i.__scatterload_copy  mc_p.l(handlers.o)
    0x0001b49c   0x00000002   Code   RO         4420    i.__scatterload_null  mc_p.l(handlers.o)
    0x0001b49e   0x0000000e   Code   RO         4421    i.__scatterload_zeroinit  mc_p.l(handlers.o)
    0x0001b4ac   0x00000028   Code   RO         1244    i.addr_compare      id_manager.o
    0x0001b4d4   0x00000216   Code   RO          506    i.adv_data_encode   ble_advdata.o
    0x0001b6ea   0x0000002e   Code   RO            3    i.adv_report_parse  main.o
    0x0001b718   0x0000003c   Code   RO          423    i.advertising_buttons_configure  bsp_btn_ble.o
    0x0001b754   0x0000004e   Code   RO         1245    i.ah                id_manager.o
    0x0001b7a2   0x00000002   PAD
    0x0001b7a4   0x00000018   Code   RO          316    i.alert_timer_handler  bsp.o
    0x0001b7bc   0x00000024   Code   RO         3429    i.app_button_enable  app_button.o
    0x0001b7e0   0x00000074   Code   RO         3430    i.app_button_init   app_button.o
    0x0001b854   0x0000001c   Code   RO         3498    i.app_error_fault_handler  app_error.o
    0x0001b870   0x00000018   Code   RO         3500    i.app_error_handler_bare  app_error.o
    0x0001b888   0x00000024   Code   RO         3692    i.app_notify        fds.o
    0x0001b8ac   0x0000003e   Code   RO         3966    i.app_notify        fstorage.o
    0x0001b8ea   0x00000002   PAD
    0x0001b8ec   0x0000002c   Code   RO         3552    i.app_timer_create  app_timer.o
    0x0001b918   0x00000090   Code   RO         3553    i.app_timer_init    app_timer.o
    0x0001b9a8   0x0000007c   Code   RO         3554    i.app_timer_start   app_timer.o
    0x0001ba24   0x00000054   Code   RO         3555    i.app_timer_stop    app_timer.o
    0x0001ba78   0x00000084   Code   RO         2562    i.app_uart_init     app_uart.o
    0x0001bafc   0x000000a8   Code   RO         2063    i.auth_status_success_process  security_dispatcher.o
    0x0001bba4   0x00000068   Code   RO          507    i.ble_advdata_set   ble_advdata.o
    0x0001bc0c   0x00000124   Code   RO          590    i.ble_advertising_init  ble_advertising.o
    0x0001bd30   0x0000007c   Code   RO          591    i.ble_advertising_on_ble_evt  ble_advertising.o
    0x0001bdac   0x00000030   Code   RO          592    i.ble_advertising_on_sys_evt  ble_advertising.o
    0x0001bddc   0x00000010   Code   RO          594    i.ble_advertising_peer_address_clear  ble_advertising.o
    0x0001bdec   0x000001e0   Code   RO          596    i.ble_advertising_start  ble_advertising.o
    0x0001bfcc   0x00000054   Code   RO          681    i.ble_conn_params_init  ble_conn_params.o
    0x0001c020   0x00000090   Code   RO          682    i.ble_conn_params_on_ble_evt  ble_conn_params.o
    0x0001c0b0   0x00000014   Code   RO          753    i.ble_conn_state_conn_handles  ble_conn_state.o
    0x0001c0c4   0x00000014   Code   RO          754    i.ble_conn_state_encrypted  ble_conn_state.o
    0x0001c0d8   0x00000014   Code   RO          756    i.ble_conn_state_mitm_protected  ble_conn_state.o
    0x0001c0ec   0x00000014   Code   RO          757    i.ble_conn_state_n_centrals  ble_conn_state.o
    0x0001c100   0x000000f8   Code   RO          760    i.ble_conn_state_on_ble_evt  ble_conn_state.o
    0x0001c1f8   0x00000034   Code   RO          762    i.ble_conn_state_role  ble_conn_state.o
    0x0001c22c   0x00000030   Code   RO          764    i.ble_conn_state_user_flag_acquire  ble_conn_state.o
    0x0001c25c   0x00000018   Code   RO          765    i.ble_conn_state_user_flag_collection  ble_conn_state.o
    0x0001c274   0x00000024   Code   RO          766    i.ble_conn_state_user_flag_get  ble_conn_state.o
    0x0001c298   0x00000028   Code   RO          767    i.ble_conn_state_user_flag_set  ble_conn_state.o
    0x0001c2c0   0x0000004c   Code   RO          884    i.ble_db_discovery_evt_register  ble_db_discovery.o
    0x0001c30c   0x00000014   Code   RO          885    i.ble_db_discovery_init  ble_db_discovery.o
    0x0001c320   0x000000a0   Code   RO          886    i.ble_db_discovery_on_ble_evt  ble_db_discovery.o
    0x0001c3c0   0x00000060   Code   RO          887    i.ble_db_discovery_start  ble_db_discovery.o
    0x0001c420   0x0000005e   Code   RO          508    i.ble_device_addr_encode  ble_advdata.o
    0x0001c47e   0x00000002   PAD
    0x0001c480   0x000000c8   Code   RO            5    i.ble_evt_dispatch  main.o
    0x0001c548   0x0000004c   Code   RO         2359    i.ble_hrs_c_hrm_notif_enable  ble_hrs_c.o
    0x0001c594   0x00000040   Code   RO         2360    i.ble_hrs_c_init    ble_hrs_c.o
    0x0001c5d4   0x00000054   Code   RO         2361    i.ble_hrs_c_on_ble_evt  ble_hrs_c.o
    0x0001c628   0x00000058   Code   RO         2280    i.ble_hrs_heart_rate_measurement_send  ble_hrs.o
    0x0001c680   0x0000005c   Code   RO         2281    i.ble_hrs_init      ble_hrs.o
    0x0001c6dc   0x00000050   Code   RO         2282    i.ble_hrs_on_ble_evt  ble_hrs.o
    0x0001c72c   0x00000040   Code   RO         2462    i.ble_rscs_c_init   ble_rscs_c.o
    0x0001c76c   0x0000002a   Code   RO         2463    i.ble_rscs_c_on_ble_evt  ble_rscs_c.o
    0x0001c796   0x00000002   PAD
    0x0001c798   0x0000004c   Code   RO         2464    i.ble_rscs_c_rsc_notif_enable  ble_rscs_c.o
    0x0001c7e4   0x00000050   Code   RO         2408    i.ble_rscs_init     ble_rscs.o
    0x0001c834   0x00000060   Code   RO         2409    i.ble_rscs_measurement_send  ble_rscs.o
    0x0001c894   0x00000058   Code   RO         2410    i.ble_rscs_on_ble_evt  ble_rscs.o
    0x0001c8ec   0x00000078   Code   RO            6    i.ble_stack_init    main.o
    0x0001c964   0x00000088   Code   RO         2287    i.body_sensor_location_char_add  ble_hrs.o
    0x0001c9ec   0x00000054   Code   RO          424    i.bsp_btn_ble_init  bsp_btn_ble.o
    0x0001ca40   0x000000a0   Code   RO          317    i.bsp_button_event_handler  bsp.o
    0x0001cae0   0x0000002c   Code   RO          318    i.bsp_button_is_pressed  bsp.o
    0x0001cb0c   0x00000048   Code   RO          322    i.bsp_event_to_button_action_assign  bsp.o
    0x0001cb54   0x000000a0   Code   RO          325    i.bsp_init          bsp.o
    0x0001cbf4   0x000001f8   Code   RO          326    i.bsp_led_indication  bsp.o
    0x0001cdec   0x0000000c   Code   RO          328    i.button_timer_handler  bsp.o
    0x0001cdf8   0x0000001c   Code   RO         2933    i.channel_free      nrf_drv_gpiote.o
    0x0001ce14   0x00000048   Code   RO         2934    i.channel_port_alloc  nrf_drv_gpiote.o
    0x0001ce5c   0x00000010   Code   RO         2935    i.channel_port_get  nrf_drv_gpiote.o
    0x0001ce6c   0x0000003c   Code   RO          888    i.characteristics_discover  ble_db_discovery.o
    0x0001cea8   0x00000020   Code   RO         3967    i.check_config      fstorage.o
    0x0001cec8   0x00000018   Code   RO         3693    i.chunk_queue_next  fds.o
    0x0001cee0   0x00000054   Code   RO         3968    i.cmd_enqueue       fstorage.o
    0x0001cf34   0x000000f8   Code   RO         3694    i.cmd_queue_process  fds.o
    0x0001d02c   0x00000020   Code   RO         3695    i.cmd_queue_process_start  fds.o
    0x0001d04c   0x000000a8   Code   RO         3557    i.compare_reg_update  app_timer.o
    0x0001d0f4   0x00000088   Code   RO          509    i.conn_int_encode   ble_advdata.o
    0x0001d17c   0x00000008   Code   RO            7    i.conn_params_error_handler  main.o
    0x0001d184   0x00000068   Code   RO          684    i.conn_params_negotiation  ble_conn_params.o
    0x0001d1ec   0x0000000a   Code   RO         1424    i.convert_peer_data_id_to_type_id  peer_data_storage.o
    0x0001d1f6   0x0000000a   Code   RO         1425    i.convert_peer_id_to_instance_id  peer_data_storage.o
    0x0001d200   0x0000000a   Code   RO         1426    i.convert_type_id_to_peer_data_id  peer_data_storage.o
    0x0001d20a   0x00000002   PAD
    0x0001d20c   0x00000044   Code   RO         2000    i.current_int_priority_get  pm_mutex.o
    0x0001d250   0x00000064   Code   RO         2362    i.db_discover_evt_handler  ble_hrs_c.o
    0x0001d2b4   0x00000068   Code   RO         2465    i.db_discover_evt_handler  ble_rscs_c.o
    0x0001d31c   0x00000084   Code   RO          889    i.descriptors_discover  ble_db_discovery.o
    0x0001d3a0   0x00000060   Code   RO         3432    i.detection_delay_timeout_handler  app_button.o
    0x0001d400   0x0000005c   Code   RO         2064    i.disconnect_process  security_dispatcher.o
    0x0001d45c   0x0000006c   Code   RO          890    i.discovery_complete_evt_trigger  ble_db_discovery.o
    0x0001d4c8   0x00000050   Code   RO          891    i.discovery_error_evt_trigger  ble_db_discovery.o
    0x0001d518   0x00000040   Code   RO         3558    i.elapsed_ticks_acquire  app_timer.o
    0x0001d558   0x00000030   Code   RO         2065    i.encryption_failure  security_dispatcher.o
    0x0001d588   0x00000032   Code   RO         2172    i.events_send_from_err_code  security_manager.o
    0x0001d5ba   0x00000002   PAD
    0x0001d5bc   0x00000020   Code   RO         1246    i.evt_send          id_manager.o
    0x0001d5dc   0x00000024   Code   RO         1781    i.evt_send          peer_manager.o
    0x0001d600   0x00000020   Code   RO         2066    i.evt_send          security_dispatcher.o
    0x0001d620   0x00000020   Code   RO         2173    i.evt_send          security_manager.o
    0x0001d640   0x00000040   Code   RO         3696    i.fds_clear         fds.o
    0x0001d680   0x00000044   Code   RO         3697    i.fds_clear_by_instance  fds.o
    0x0001d6c4   0x00000030   Code   RO         3698    i.fds_close         fds.o
    0x0001d6f4   0x00000014   Code   RO         3699    i.fds_descriptor_from_rec_id  fds.o
    0x0001d708   0x000000b4   Code   RO         1427    i.fds_evt_handler   peer_data_storage.o
    0x0001d7bc   0x0000000e   Code   RO         3700    i.fds_find          fds.o
    0x0001d7ca   0x00000010   Code   RO         3702    i.fds_find_by_type  fds.o
    0x0001d7da   0x00000092   Code   RO         3704    i.fds_init          fds.o
    0x0001d86c   0x00000058   Code   RO         3705    i.fds_open          fds.o
    0x0001d8c4   0x00000014   Code   RO         3706    i.fds_record_id_from_desc  fds.o
    0x0001d8d8   0x00000024   Code   RO         3707    i.fds_register      fds.o
    0x0001d8fc   0x00000032   Code   RO         3708    i.fds_reserve       fds.o
    0x0001d92e   0x00000002   PAD
    0x0001d930   0x00000048   Code   RO         3709    i.fds_reserve_cancel  fds.o
    0x0001d978   0x00000010   Code   RO         3710    i.fds_update        fds.o
    0x0001d988   0x0000000e   Code   RO         3711    i.fds_write         fds.o
    0x0001d996   0x0000001c   Code   RO         3712    i.fds_write_reserved  fds.o
    0x0001d9b2   0x00000002   PAD
    0x0001d9b4   0x00000054   Code   RO         3713    i.find_next_valid   fds.o
    0x0001da08   0x00000070   Code   RO         3714    i.find_record       fds.o
    0x0001da78   0x000000d0   Code   RO         3715    i.find_record_by_key  fds.o
    0x0001db48   0x00000010   Code   RO         3716    i.flag_clear        fds.o
    0x0001db58   0x00000012   Code   RO         2067    i.flag_id_init      security_dispatcher.o
    0x0001db6a   0x00000012   Code   RO         2174    i.flag_id_init      security_manager.o
    0x0001db7c   0x00000014   Code   RO         3717    i.flag_is_set       fds.o
    0x0001db90   0x00000010   Code   RO         3718    i.flag_set          fds.o
    0x0001dba0   0x00000060   Code   RO         2175    i.flags_set_from_err_code  security_manager.o
    0x0001dc00   0x0000000c   Code   RO         3719    i.fs_callback       fds.o
    0x0001dc0c   0x00000064   Code   RO         3969    i.fs_erase          fstorage.o
    0x0001dc70   0x0000007c   Code   RO         3970    i.fs_init           fstorage.o
    0x0001dcec   0x00000064   Code   RO         3971    i.fs_store          fstorage.o
    0x0001dd50   0x0000007c   Code   RO         3972    i.fs_sys_event_handler  fstorage.o
    0x0001ddcc   0x00000048   Code   RO         3720    i.gc_copy_record    fds.o
    0x0001de14   0x00000028   Code   RO         3721    i.gc_erase_swap     fds.o
    0x0001de3c   0x000000c0   Code   RO         3722    i.gc_execute        fds.o
    0x0001defc   0x00000044   Code   RO         3723    i.gc_swap           fds.o
    0x0001df40   0x00000002   Code   RO          989    i.gccm_evt_handler  gatt_cache_manager.o
    0x0001df42   0x00000002   PAD
    0x0001df44   0x00000024   Code   RO         1115    i.gccm_init         gattc_cache_manager.o
    0x0001df68   0x000000e4   Code   RO          990    i.gcm_ble_evt_handler  gatt_cache_manager.o
    0x0001e04c   0x00000080   Code   RO         1782    i.gcm_evt_handler   peer_manager.o
    0x0001e0cc   0x0000007c   Code   RO          991    i.gcm_init          gatt_cache_manager.o
    0x0001e148   0x0000004c   Code   RO          992    i.gcm_local_database_has_changed  gatt_cache_manager.o
    0x0001e194   0x00000038   Code   RO         1247    i.get_connection_by_conn_handle  id_manager.o
    0x0001e1cc   0x00000030   Code   RO         1248    i.get_free_connection  id_manager.o
    0x0001e1fc   0x00000050   Code   RO         3433    i.gpiote_event_handler  app_button.o
    0x0001e24c   0x00000064   Code   RO          998    i.gscm_evt_handler  gatt_cache_manager.o
    0x0001e2b0   0x00000024   Code   RO         1154    i.gscm_init         gatts_cache_manager.o
    0x0001e2d4   0x00000040   Code   RO         1155    i.gscm_local_database_has_changed  gatts_cache_manager.o
    0x0001e314   0x00000084   Code   RO         1156    i.gscm_local_db_cache_apply  gatts_cache_manager.o
    0x0001e398   0x00000098   Code   RO         1159    i.gscm_local_db_cache_update  gatts_cache_manager.o
    0x0001e430   0x0000002c   Code   RO         1160    i.gscm_peer_was_notified_of_db_change  gatts_cache_manager.o
    0x0001e45c   0x0000001e   Code   RO         1161    i.gscm_service_changed_ind_needed  gatts_cache_manager.o
    0x0001e47a   0x00000002   PAD
    0x0001e47c   0x00000034   Code   RO         1162    i.gscm_service_changed_ind_send  gatts_cache_manager.o
    0x0001e4b0   0x0000001c   Code   RO         3724    i.header_is_valid   fds.o
    0x0001e4cc   0x000000b0   Code   RO         2288    i.heart_rate_measurement_char_add  ble_hrs.o
    0x0001e57c   0x00000088   Code   RO         2289    i.hrm_encode        ble_hrs.o
    0x0001e604   0x0000005c   Code   RO            8    i.hrs_c_evt_handler  main.o
    0x0001e660   0x00000040   Code   RO         1249    i.im_address_resolve  id_manager.o
    0x0001e6a0   0x0000003c   Code   RO         1250    i.im_ble_addr_get   id_manager.o
    0x0001e6dc   0x000000b4   Code   RO         1251    i.im_ble_evt_handler  id_manager.o
    0x0001e790   0x0000002c   Code   RO         1252    i.im_conn_handle_get  id_manager.o
    0x0001e7bc   0x0000002c   Code   RO          999    i.im_evt_handler    gatt_cache_manager.o
    0x0001e7e8   0x0000004c   Code   RO         1783    i.im_evt_handler    peer_manager.o
    0x0001e834   0x0000001c   Code   RO         1253    i.im_master_id_is_valid  id_manager.o
    0x0001e850   0x0000001c   Code   RO         1254    i.im_new_peer_id    id_manager.o
    0x0001e86c   0x00000028   Code   RO         1255    i.im_peer_id_get_by_conn_handle  id_manager.o
    0x0001e894   0x00000048   Code   RO         1257    i.im_peer_id_get_by_master_id  id_manager.o
    0x0001e8dc   0x00000078   Code   RO         1258    i.im_register       id_manager.o
    0x0001e954   0x000000c4   Code   RO         3725    i.init_execute      fds.o
    0x0001ea18   0x00000078   Code   RO         4241    i.intern_softdevice_events_execute  softdevice_handler.o
    0x0001ea90   0x0000001c   Code   RO          685    i.is_conn_params_ok  ble_conn_params.o
    0x0001eaac   0x00000042   Code   RO          892    i.is_desc_discovery_reqd  ble_db_discovery.o
    0x0001eaee   0x00000038   Code   RO         1261    i.is_duplicate_bonding_data  id_manager.o
    0x0001eb26   0x00000002   PAD
    0x0001eb28   0x00000048   Code   RO          471    i.is_manual_peripheral_setup_needed  system_nrf51.o
    0x0001eb70   0x00000016   Code   RO         1262    i.is_valid_irk      id_manager.o
    0x0001eb86   0x00000054   Code   RO          510    i.le_role_encode    ble_advdata.o
    0x0001ebda   0x00000002   PAD
    0x0001ebdc   0x00000018   Code   RO          329    i.leds_timer_handler  bsp.o
    0x0001ebf4   0x000000a0   Code   RO         2176    i.link_secure       security_manager.o
    0x0001ec94   0x00000088   Code   RO         2068    i.link_secure_central  security_dispatcher.o
    0x0001ed1c   0x000000ce   Code   RO         2069    i.link_secure_central_existing_peer  security_dispatcher.o
    0x0001edea   0x00000002   PAD
    0x0001edec   0x00000074   Code   RO         2070    i.link_secure_central_new_peer  security_dispatcher.o
    0x0001ee60   0x0000005c   Code   RO         2177    i.link_secure_pending_process  security_manager.o
    0x0001eebc   0x000000bc   Code   RO         3559    i.list_deletions_handler  app_timer.o
    0x0001ef78   0x000000d4   Code   RO         3560    i.list_insertions_handler  app_timer.o
    0x0001f04c   0x00000078   Code   RO         1000    i.local_db_apply_in_evt  gatt_cache_manager.o
    0x0001f0c4   0x00000078   Code   RO         1001    i.local_db_update_in_evt  gatt_cache_manager.o
    0x0001f13c   0x0000005a   Code   RO         2001    i.lock_by_mask      pm_mutex.o
    0x0001f196   0x00000002   PAD
    0x0001f198   0x0000004c   Code   RO         4052    i.log_uart_init     nrf_log.o
    0x0001f1e4   0x000001a4   Code   RO            9    i.main              main.o
    0x0001f388   0x00000068   Code   RO          511    i.manuf_specific_data_encode  ble_advdata.o
    0x0001f3f0   0x0000002c   Code   RO         1263    i.master_id_compare  id_manager.o
    0x0001f41c   0x0000009e   Code   RO          512    i.name_encode       ble_advdata.o
    0x0001f4ba   0x00000002   PAD
    0x0001f4bc   0x0000005c   Code   RO         1264    i.new_connection    id_manager.o
    0x0001f518   0x00000060   Code   RO         2875    i.nrf_drv_common_irq_enable  nrf_drv_common.o
    0x0001f578   0x000000a0   Code   RO         2938    i.nrf_drv_gpiote_in_event_enable  nrf_drv_gpiote.o
    0x0001f618   0x000000a4   Code   RO         2939    i.nrf_drv_gpiote_in_init  nrf_drv_gpiote.o
    0x0001f6bc   0x00000014   Code   RO         2940    i.nrf_drv_gpiote_in_is_set  nrf_drv_gpiote.o
    0x0001f6d0   0x00000054   Code   RO         2942    i.nrf_drv_gpiote_init  nrf_drv_gpiote.o
    0x0001f724   0x00000010   Code   RO         2943    i.nrf_drv_gpiote_is_init  nrf_drv_gpiote.o
    0x0001f734   0x000000c8   Code   RO         3124    i.nrf_drv_uart_init  nrf_drv_uart.o
    0x0001f7fc   0x0000004c   Code   RO         3125    i.nrf_drv_uart_rx   nrf_drv_uart.o
    0x0001f848   0x00000018   Code   RO         3128    i.nrf_drv_uart_rx_enable  nrf_drv_uart.o
    0x0001f860   0x0000009c   Code   RO         3129    i.nrf_drv_uart_rx_for_uart  nrf_drv_uart.o
    0x0001f8fc   0x00000024   Code   RO         2955    i.nrf_gpio_cfg      nrf_drv_gpiote.o
    0x0001f920   0x00000024   Code   RO         3134    i.nrf_gpio_cfg      nrf_drv_uart.o
    0x0001f944   0x00000012   Code   RO         3136    i.nrf_gpio_cfg_input  nrf_drv_uart.o
    0x0001f956   0x00000014   Code   RO         3137    i.nrf_gpio_cfg_output  nrf_drv_uart.o
    0x0001f96a   0x00000002   PAD
    0x0001f96c   0x00000020   Code   RO         2957    i.nrf_gpio_cfg_sense_set  nrf_drv_gpiote.o
    0x0001f98c   0x00000014   Code   RO         2958    i.nrf_gpiote_event_is_set  nrf_drv_gpiote.o
    0x0001f9a0   0x0000000a   Code   RO         3138    i.nrf_uart_event_check  nrf_drv_uart.o
    0x0001f9aa   0x00000010   Code   RO         3139    i.nrf_uart_int_enable_check  nrf_drv_uart.o
    0x0001f9ba   0x00000002   PAD
    0x0001f9bc   0x0000002c   Code   RO           10    i.on_adv_evt        main.o
    0x0001f9e8   0x00000180   Code   RO           11    i.on_ble_central_evt  main.o
    0x0001fb68   0x000000bc   Code   RO          893    i.on_characteristic_discovery_rsp  ble_db_discovery.o
    0x0001fc24   0x0000009c   Code   RO          894    i.on_descriptor_discovery_rsp  ble_db_discovery.o
    0x0001fcc0   0x0000007a   Code   RO         2466    i.on_hvx            ble_rscs_c.o
    0x0001fd3a   0x00000002   PAD
    0x0001fd3c   0x0000005c   Code   RO          895    i.on_srv_disc_completion  ble_db_discovery.o
    0x0001fd98   0x0000000c   Code   RO         3726    i.page_id_within_bounds  fds.o
    0x0001fda4   0x0000005c   Code   RO         3727    i.page_scan         fds.o
    0x0001fe00   0x00000020   Code   RO         3728    i.page_tag_write_swap  fds.o
    0x0001fe20   0x00000018   Code   RO         3729    i.page_tag_write_valid  fds.o
    0x0001fe38   0x000000bc   Code   RO         3730    i.pages_init        fds.o
    0x0001fef4   0x00000050   Code   RO         2071    i.pairing_failure   security_dispatcher.o
    0x0001ff44   0x0000003c   Code   RO         2178    i.params_reply_pending_process  security_manager.o
    0x0001ff80   0x00000018   Code   RO         1575    i.pdb_clear         peer_database.o
    0x0001ff98   0x0000001c   Code   RO         1118    i.pdb_evt_handler   gattc_cache_manager.o
    0x0001ffb4   0x00000040   Code   RO         1163    i.pdb_evt_handler   gatts_cache_manager.o
    0x0001fff4   0x00000078   Code   RO         1265    i.pdb_evt_handler   id_manager.o
    0x0002006c   0x00000080   Code   RO         1784    i.pdb_evt_handler   peer_manager.o
    0x000200ec   0x00000034   Code   RO         2072    i.pdb_evt_handler   security_dispatcher.o
    0x00020120   0x00000034   Code   RO         2179    i.pdb_evt_handler   security_manager.o
    0x00020154   0x00000020   Code   RO         1576    i.pdb_evt_send      peer_database.o
    0x00020174   0x0000001c   Code   RO         1578    i.pdb_next_peer_id_get  peer_database.o
    0x00020190   0x0000001c   Code   RO         1579    i.pdb_peer_allocate  peer_database.o
    0x000201ac   0x00000018   Code   RO         1580    i.pdb_peer_free     peer_database.o
    0x000201c4   0x00000024   Code   RO         1582    i.pdb_raw_store     peer_database.o
    0x000201e8   0x00000018   Code   RO         1583    i.pdb_read_buf_get  peer_database.o
    0x00020200   0x00000080   Code   RO         1584    i.pdb_register      peer_database.o
    0x00020280   0x00000140   Code   RO         1585    i.pdb_write_buf_get  peer_database.o
    0x000203c0   0x0000003c   Code   RO         1586    i.pdb_write_buf_release  peer_database.o
    0x000203fc   0x00000108   Code   RO         1587    i.pdb_write_buf_store  peer_database.o
    0x00020504   0x00000068   Code   RO         1588    i.pdb_write_buf_store_prepare  peer_database.o
    0x0002056c   0x00000104   Code   RO         1589    i.pds_evt_handler   peer_database.o
    0x00020670   0x0000002c   Code   RO         1429    i.pds_next_peer_id_get  peer_data_storage.o
    0x0002069c   0x00000074   Code   RO         1430    i.pds_peer_data_clear  peer_data_storage.o
    0x00020710   0x00000094   Code   RO         1433    i.pds_peer_data_read_ptr_get  peer_data_storage.o
    0x000207a4   0x000000a8   Code   RO         1434    i.pds_peer_data_update  peer_data_storage.o
    0x0002084c   0x000000a4   Code   RO         1436    i.pds_peer_data_write  peer_data_storage.o
    0x000208f0   0x00000040   Code   RO         1437    i.pds_peer_data_write_prepare  peer_data_storage.o
    0x00020930   0x0000002c   Code   RO         1438    i.pds_peer_data_write_prepare_cancel  peer_data_storage.o
    0x0002095c   0x000000b0   Code   RO         1439    i.pds_peer_data_write_prepared  peer_data_storage.o
    0x00020a0c   0x0000002c   Code   RO         1440    i.pds_peer_id_allocate  peer_data_storage.o
    0x00020a38   0x00000050   Code   RO         1441    i.pds_peer_id_free  peer_data_storage.o
    0x00020a88   0x00000024   Code   RO         1442    i.pds_peer_id_is_allocated  peer_data_storage.o
    0x00020aac   0x0000005c   Code   RO         1443    i.pds_register      peer_data_storage.o
    0x00020b08   0x00000016   Code   RO          598    i.peer_address_exists  ble_advertising.o
    0x00020b1e   0x0000000a   Code   RO         1590    i.peer_data_const_point_to_buffer  peer_database.o
    0x00020b28   0x0000005c   Code   RO         1389    i.peer_data_parts_get  peer_data.o
    0x00020b84   0x0000004a   Code   RO         1591    i.peer_data_point_to_buffer  peer_database.o
    0x00020bce   0x00000002   PAD
    0x00020bd0   0x00000040   Code   RO         1729    i.peer_id_allocate  peer_id.o
    0x00020c10   0x00000014   Code   RO         1730    i.peer_id_free      peer_id.o
    0x00020c24   0x0000001c   Code   RO         1731    i.peer_id_init      peer_id.o
    0x00020c40   0x00000018   Code   RO         1732    i.peer_id_is_allocated  peer_id.o
    0x00020c58   0x00000038   Code   RO         1734    i.peer_id_next_id_get  peer_id.o
    0x00020c90   0x00000054   Code   RO         1444    i.peer_ids_init     peer_data_storage.o
    0x00020ce4   0x00000070   Code   RO           12    i.peer_manager_init  main.o
    0x00020d54   0x0000002c   Code   RO          896    i.pending_user_evts_send  ble_db_discovery.o
    0x00020d80   0x00000018   Code   RO         2959    i.pin_in_use_by_port  nrf_drv_gpiote.o
    0x00020d98   0x00000018   Code   RO         2960    i.pin_in_use_by_te  nrf_drv_gpiote.o
    0x00020db0   0x00000024   Code   RO         1785    i.pm_ble_evt_handler  peer_manager.o
    0x00020dd4   0x0000005e   Code   RO         1968    i.pm_buffer_block_acquire  pm_buffer.o
    0x00020e32   0x00000042   Code   RO         1969    i.pm_buffer_init    pm_buffer.o
    0x00020e74   0x0000002e   Code   RO         1970    i.pm_buffer_ptr_get  pm_buffer.o
    0x00020ea2   0x0000002a   Code   RO         1971    i.pm_buffer_release  pm_buffer.o
    0x00020ecc   0x00000040   Code   RO           13    i.pm_evt_handler    main.o
    0x00020f0c   0x00000064   Code   RO         1787    i.pm_init           peer_manager.o
    0x00020f70   0x00000018   Code   RO         1788    i.pm_link_secure    peer_manager.o
    0x00020f88   0x00000008   Code   RO         1790    i.pm_local_database_has_changed  peer_manager.o
    0x00020f90   0x00000010   Code   RO         2002    i.pm_mutex_init     pm_mutex.o
    0x00020fa0   0x0000001c   Code   RO         2003    i.pm_mutex_lock     pm_mutex.o
    0x00020fbc   0x00000034   Code   RO         2004    i.pm_mutex_lock_first_available  pm_mutex.o
    0x00020ff0   0x00000018   Code   RO         2005    i.pm_mutex_lock_status_get  pm_mutex.o
    0x00021008   0x00000060   Code   RO         2006    i.pm_mutex_unlock   pm_mutex.o
    0x00021068   0x00000024   Code   RO         1797    i.pm_peer_delete_all  peer_manager.o
    0x0002108c   0x0000002c   Code   RO         1800    i.pm_register       peer_manager.o
    0x000210b8   0x00000020   Code   RO         1802    i.pm_sec_params_set  peer_manager.o
    0x000210d8   0x00000028   Code   RO         2651    i.pstorage_access_status_get  pstorage.o
    0x00021100   0x00000034   Code   RO         3973    i.queue_advance     fstorage.o
    0x00021134   0x0000008c   Code   RO         3974    i.queue_process     fstorage.o
    0x000211c0   0x00000058   Code   RO         3731    i.queue_reserve     fds.o
    0x00021218   0x0000003c   Code   RO          897    i.registered_handler_get  ble_db_discovery.o
    0x00021254   0x0000008c   Code   RO         2411    i.rsc_feature_char_add  ble_rscs.o
    0x000212e0   0x000000b0   Code   RO         2412    i.rsc_measurement_char_add  ble_rscs.o
    0x00021390   0x00000064   Code   RO         2413    i.rsc_measurement_encode  ble_rscs.o
    0x000213f4   0x0000007c   Code   RO           14    i.rscs_c_evt_handler  main.o
    0x00021470   0x00000044   Code   RO         3561    i.rtc1_stop         app_timer.o
    0x000214b4   0x00000038   Code   RO         3140    i.rx_byte           nrf_drv_uart.o
    0x000214ec   0x0000001c   Code   RO         3141    i.rx_done_event     nrf_drv_uart.o
    0x00021508   0x0000001c   Code   RO         3142    i.rx_enable         nrf_drv_uart.o
    0x00021524   0x0000001c   Code   RO           15    i.scan_start        main.o
    0x00021540   0x00000010   Code   RO         4242    i.sd_check_ram_start  softdevice_handler.o
    0x00021550   0x00000046   Code   RO         4179    i.sdk_mapped_flags_bulk_update_by_key  sdk_mapped_flags.o
    0x00021596   0x00000002   PAD
    0x00021598   0x00000028   Code   RO         4180    i.sdk_mapped_flags_first_key_index_get  sdk_mapped_flags.o
    0x000215c0   0x00000010   Code   RO         4181    i.sdk_mapped_flags_get_by_index  sdk_mapped_flags.o
    0x000215d0   0x00000026   Code   RO         4182    i.sdk_mapped_flags_get_by_key  sdk_mapped_flags.o
    0x000215f6   0x00000046   Code   RO         4183    i.sdk_mapped_flags_key_list_get  sdk_mapped_flags.o
    0x0002163c   0x00000020   Code   RO         4184    i.sdk_mapped_flags_n_flags_set  sdk_mapped_flags.o
    0x0002165c   0x0000000e   Code   RO         4185    i.sdk_mapped_flags_update_by_key  sdk_mapped_flags.o
    0x0002166a   0x00000002   PAD
    0x0002166c   0x000000a8   Code   RO         2073    i.sec_info_request_process  security_dispatcher.o
    0x00021714   0x0000006e   Code   RO         2180    i.sec_params_verify  security_manager.o
    0x00021782   0x00000002   PAD
    0x00021784   0x0000004c   Code   RO         2074    i.sec_proc_start    security_dispatcher.o
    0x000217d0   0x0000001c   Code   RO         2075    i.sec_start_send    security_dispatcher.o
    0x000217ec   0x00000098   Code   RO         1002    i.service_changed_pending_flags_check  gatt_cache_manager.o
    0x00021884   0x0000008e   Code   RO          513    i.service_data_encode  ble_advdata.o
    0x00021912   0x00000002   PAD
    0x00021914   0x000000ac   Code   RO           16    i.services_init     main.o
    0x000219c0   0x0000001c   Code   RO         2181    i.sm_ble_evt_handler  security_manager.o
    0x000219dc   0x0000013c   Code   RO         1805    i.sm_evt_handler    peer_manager.o
    0x00021b18   0x00000020   Code   RO         2182    i.sm_link_secure    security_manager.o
    0x00021b38   0x00000090   Code   RO         2183    i.sm_register       security_manager.o
    0x00021bc8   0x00000040   Code   RO         2185    i.sm_sec_params_set  security_manager.o
    0x00021c08   0x000000e0   Code   RO         2076    i.smd_ble_evt_handler  security_dispatcher.o
    0x00021ce8   0x00000010   Code   RO         1003    i.smd_evt_handler   gatt_cache_manager.o
    0x00021cf8   0x00000078   Code   RO         2186    i.smd_evt_handler   security_manager.o
    0x00021d70   0x00000048   Code   RO         2077    i.smd_link_secure   security_dispatcher.o
    0x00021db8   0x00000120   Code   RO         2078    i.smd_params_reply  security_dispatcher.o
    0x00021ed8   0x00000038   Code   RO         2187    i.smd_params_reply_perform  security_manager.o
    0x00021f10   0x00000064   Code   RO         2079    i.smd_register      security_dispatcher.o
    0x00021f74   0x00000014   Code   RO         4243    i.softdevice_ble_evt_handler_set  softdevice_handler.o
    0x00021f88   0x00000014   Code   RO         4244    i.softdevice_enable  softdevice_handler.o
    0x00021f9c   0x00000028   Code   RO         4245    i.softdevice_enable_get_default_config  softdevice_handler.o
    0x00021fc4   0x00000008   Code   RO         4246    i.softdevice_fault_handler  softdevice_handler.o
    0x00021fcc   0x00000030   Code   RO         4247    i.softdevice_handler_init  softdevice_handler.o
    0x00021ffc   0x00000014   Code   RO         4250    i.softdevice_sys_evt_handler_set  softdevice_handler.o
    0x00022010   0x0000017c   Code   RO         3732    i.store_execute     fds.o
    0x0002218c   0x00000010   Code   RO           17    i.sys_evt_dispatch  main.o
    0x0002219c   0x00000084   Code   RO         3562    i.timer_list_handler  app_timer.o
    0x00022220   0x00000010   Code   RO         3563    i.timer_list_handler_sched  app_timer.o
    0x00022230   0x00000040   Code   RO         3564    i.timer_list_insert  app_timer.o
    0x00022270   0x00000080   Code   RO         3565    i.timer_timeouts_check  app_timer.o
    0x000222f0   0x00000044   Code   RO         2363    i.tx_buffer_process  ble_hrs_c.o
    0x00022334   0x00000044   Code   RO         2467    i.tx_buffer_process  ble_rscs_c.o
    0x00022378   0x0000002c   Code   RO         3143    i.tx_byte           nrf_drv_uart.o
    0x000223a4   0x00000020   Code   RO         3144    i.tx_done_event     nrf_drv_uart.o
    0x000223c4   0x00000014   Code   RO         4057    i.uart_error_cb     nrf_log.o
    0x000223d8   0x00000058   Code   RO         2564    i.uart_event_handler  app_uart.o
    0x00022430   0x00000128   Code   RO         3145    i.uart_irq_handler  nrf_drv_uart.o
    0x00022558   0x0000000a   Code   RO          514    i.uint16_encode     ble_advdata.o
    0x00022562   0x00000012   Code   RO         3733    i.update_page_offsets  fds.o
    0x00022574   0x00000064   Code   RO          686    i.update_timeout_handler  ble_conn_params.o
    0x000225d8   0x00000018   Code   RO          769    i.user_flag_is_acquired  ble_conn_state.o
    0x000225f0   0x00000054   Code   RO         3566    i.user_id_get       app_timer.o
    0x00022644   0x00000026   Code   RO         3567    i.user_op_alloc     app_timer.o
    0x0002266a   0x00000030   Code   RO          515    i.uuid_list_encode  ble_advdata.o
    0x0002269a   0x000000ae   Code   RO          516    i.uuid_list_sized_encode  ble_advdata.o
    0x00022748   0x00000010   Code   RO          599    i.whitelist_has_entries  ble_advertising.o
    0x00022758   0x00000034   Code   RO         1592    i.write_buffer_record_find  peer_database.o
    0x0002278c   0x00000024   Code   RO         1593    i.write_buffer_record_invalidate  peer_database.o
    0x000227b0   0x0000002c   Code   RO         1594    i.write_buffer_record_release  peer_database.o
    0x000227dc   0x00000050   Code   RO         3734    i.write_chunks      fds.o
    0x0002282c   0x00000124   Code   RO         3735    i.write_enqueue     fds.o
    0x00022950   0x0000004c   Code   RO         1595    i.write_or_update   peer_database.o
    0x0002299c   0x0000004c   Code   RO         3736    i.write_space_reserve  fds.o
    0x000229e8   0x00000018   Data   RO           19    .constdata          main.o
    0x00022a00   0x0000003c   Data   RO          334    .constdata          bsp.o
    0x00022a3c   0x00000004   Data   RO          689    .constdata          ble_conn_params.o
    0x00022a40   0x00000001   Data   RO         1164    .constdata          gatts_cache_manager.o
    0x00022a41   0x00000003   PAD
    0x00022a44   0x00000010   Data   RO         1165    .constdata          gatts_cache_manager.o
    0x00022a54   0x00000001   Data   RO         1166    .constdata          gatts_cache_manager.o
    0x00022a55   0x00000003   PAD
    0x00022a58   0x00000054   Data   RO         2080    .constdata          security_dispatcher.o
    0x00022aac   0x00000020   Data   RO         2565    .constdata          app_uart.o
    0x00022acc   0x00000020   Data   RO         3147    .constdata          nrf_drv_uart.o
    0x00022aec   0x00000008   Data   RO         3435    .constdata          app_button.o
    0x00022af4   0x00000014   Data   RO         3738    .constdata          fds.o
    0x00022b08   0x0000000c   Data   RO         4059    .constdata          nrf_log.o
    0x00022b14   0x00000020   Data   RO         4417    Region$$Table       anon$$obj.o


    Execution Region RW_IRAM1 (Base: 0x20002f80, Size: 0x000018a8, Max: 0x00005080, ABSOLUTE, COMPRESSED[0x00000024])

    Base Addr    Size         Type   Attr      Idx    E Section Name        Object

    0x20002f80   0x0000001a   Data   RW           20    .data               main.o
    0x20002f9a   0x00000002   PAD
    0x20002f9c   0x00000018   Data   RW          335    .data               bsp.o
    0x20002fb4   0x00000008   Data   RW          427    .data               bsp_btn_ble.o
    0x20002fbc   0x00000004   Data   RW          472    .data               system_nrf51.o
    0x20002fc0   0x0000001f   Data   RW          601    .data               ble_advertising.o
    0x20002fdf   0x00000001   PAD
    0x20002fe0   0x00000014   Data   RW          690    .data               ble_conn_params.o
    0x20002ff4   0x0000000c   Data   RW          899    .data               ble_db_discovery.o
    0x20003000   0x00000008   Data   RW         1004    .data               gatt_cache_manager.o
    0x20003008   0x00000004   Data   RW         1119    .data               gattc_cache_manager.o
    0x2000300c   0x00000008   Data   RW         1167    .data               gatts_cache_manager.o
    0x20003014   0x00000001   Data   RW         1597    .data               peer_database.o
    0x20003015   0x00000003   PAD
    0x20003018   0x00000010   Data   RW         2081    .data               security_dispatcher.o
    0x20003028   0x0000001c   Data   RW         2188    .data               security_manager.o
    0x20003044   0x0000000c   Data   RW         2365    .data               ble_hrs_c.o
    0x20003050   0x0000000c   Data   RW         2469    .data               ble_rscs_c.o
    0x2000305c   0x00000008   Data   RW         2566    .data               app_uart.o
    0x20003064   0x00000024   Data   RW         2676    .data               pstorage.o
    0x20003088   0x00000014   Data   RW         3436    .data               app_button.o
    0x2000309c   0x00000020   Data   RW         3568    .data               app_timer.o
    0x200030bc   0x00000010   Data   RW         3739    .data               fds.o
    0x200030cc   0x00000004   Data   RW         3976    .data               fstorage.o
    0x200030d0   0x00000005   Data   RW         4060    .data               nrf_log.o
    0x200030d5   0x00000003   PAD
    0x200030d8   0x00000014   Data   RW         4251    .data               softdevice_handler.o
    0x200030ec   0x00000010   Data   RW         3740    fs_data             fds.o
    0x200030fc   0x000002fc   Zero   RW           18    .bss                main.o
    0x200033f8   0x00000020   Zero   RW          330    .bss                bsp.o
    0x20003418   0x00000020   Zero   RW          331    .bss                bsp.o
    0x20003438   0x0000000c   Zero   RW          332    .bss                bsp.o
    0x20003444   0x00000020   Zero   RW          333    .bss                bsp.o
    0x20003464   0x00000103   Zero   RW          600    .bss                ble_advertising.o
    0x20003567   0x00000001   PAD
    0x20003568   0x00000020   Zero   RW          687    .bss                ble_conn_params.o
    0x20003588   0x0000001c   Zero   RW          688    .bss                ble_conn_params.o
    0x200035a4   0x00000028   Zero   RW          770    .bss                ble_conn_state.o
    0x200035cc   0x00000098   Zero   RW          898    .bss                ble_db_discovery.o
    0x20003664   0x00000138   Zero   RW         1266    .bss                id_manager.o
    0x2000379c   0x00000020   Zero   RW         1445    .bss                peer_data_storage.o
    0x200037bc   0x00000350   Zero   RW         1596    .bss                peer_database.o
    0x20003b0c   0x00000020   Zero   RW         1735    .bss                peer_id.o
    0x20003b2c   0x00000014   Zero   RW         1806    .bss                peer_manager.o
    0x20003b40   0x000000a0   Zero   RW         2364    .bss                ble_hrs_c.o
    0x20003be0   0x000000a0   Zero   RW         2468    .bss                ble_rscs_c.o
    0x20003c80   0x000000d8   Zero   RW         2674    .bss                pstorage.o
    0x20003d58   0x00000048   Zero   RW         2961    .bss                nrf_drv_gpiote.o
    0x20003da0   0x0000001c   Zero   RW         3146    .bss                nrf_drv_uart.o
    0x20003dbc   0x00000020   Zero   RW         3434    .bss                app_button.o
    0x20003ddc   0x000000ec   Zero   RW         3737    .bss                fds.o
    0x20003ec8   0x00000054   Zero   RW         3975    .bss                fstorage.o
    0x20003f1c   0x0000010b   Zero   RW         4058    .bss                nrf_log.o
    0x20004027   0x00000001   PAD
    0x20004028   0x00000800   Zero   RW          460    STACK               arm_startup_nrf51.o


==============================================================================

Image component sizes


      Code (inc. data)   RO Data    RW Data    ZI Data      Debug   Object Name

       328         34          8         20         32      11926   app_button.o
        52         16          0          0          0       9319   app_error.o
      1696        152          0         32          0      29403   app_timer.o
       220         18         32          8          0      11633   app_uart.o
        56         18        192          0       2048        748   arm_startup_nrf51.o
      1588          6          0          0          0      19752   ble_advdata.o
       998         34          0         31        259      13713   ble_advertising.o
       460         58          4         20         60      13564   ble_conn_params.o
       552         56          0          0         40      11885   ble_conn_state.o
      1338         78          0         12        152      16119   ble_db_discovery.o
       708         22          0          0          0       8722   ble_hrs.o
       392         44          0         12        160       8509   ble_hrs_c.o
       680         20          0          0          0      11378   ble_rscs.o
       476         44          0         12        160       9244   ble_rscs_c.o
      1000        102         60         24        108       9456   bsp.o
       144          4          0          8          0       3595   bsp_btn_ble.o
      3386        312         20         32        236      42954   fds.o
       818         80          0          4         84      10710   fstorage.o
       982         90          0          8          0      20462   gatt_cache_manager.o
        64         16          0          4          0       2616   gattc_cache_manager.o
       574         74         18          8          0      14399   gatts_cache_manager.o
      1224         86          0          0        312      17312   id_manager.o
      1856        168         24         26        764     121523   main.o
        96         18          0          0          0       8648   nrf_drv_common.o
       960        128          0          0         72      21380   nrf_drv_gpiote.o
      1048        124         32          0         28      23238   nrf_drv_uart.o
        96         16         12          5        267       6217   nrf_log.o
        92          8          0          0          0       7186   peer_data.o
      1482        110          0          0         32      22885   peer_data_storage.o
      1638        134          0          1        848      26605   peer_database.o
       192         34          0          0         32       4566   peer_id.o
       964         96          0          0         20      22342   peer_manager.o
       248          0          0          0          0       4227   pm_buffer.o
       374          8          0          0          0      13001   pm_mutex.o
        40         10          0         36        216      10597   pstorage.o
       280          6          0          0          0       8039   sdk_mapped_flags.o
      1904        110         84         16          0      20090   security_dispatcher.o
      1114         92          0         28          0      16412   security_manager.o
       324         36          0         20          0       9796   softdevice_handler.o
       156         26          0          4          0       2303   system_nrf51.o

    ----------------------------------------------------------------------
     30650       2488        524        380       5932     646474   Object Totals
         0          0         32          0          0          0   (incl. Generated)
        50          0          6          9          2          0   (incl. Padding)

    ----------------------------------------------------------------------

      Code (inc. data)   RO Data    RW Data    ZI Data      Debug   Library Member Name

        86          0          0          0          0          0   __dczerorl2.o
         0          0          0          0          0          0   entry.o
         0          0          0          0          0          0   entry10a.o
         0          0          0          0          0          0   entry11a.o
         8          4          0          0          0          0   entry2.o
         4          0          0          0          0          0   entry5.o
         0          0          0          0          0          0   entry7b.o
         0          0          0          0          0          0   entry8b.o
         8          4          0          0          0          0   entry9a.o
        30          0          0          0          0          0   handlers.o
        36          8          0          0          0         68   init.o
        26          0          0          0          0         72   memcmp.o
        64          0          0          0          0         68   memmovea.o
        36          0          0          0          0        100   memseta.o
        44          0          0          0          0         72   uidiv.o
        20          0          0          0          0         60   uread4.o

    ----------------------------------------------------------------------
       366         16          0          0          0        440   Library Totals
         4          0          0          0          0          0   (incl. Padding)

    ----------------------------------------------------------------------

      Code (inc. data)   RO Data    RW Data    ZI Data      Debug   Library Name

       362         16          0          0          0        440   mc_p.l

    ----------------------------------------------------------------------
       366         16          0          0          0        440   Library Totals

    ----------------------------------------------------------------------

==============================================================================


      Code (inc. data)   RO Data    RW Data    ZI Data      Debug   

     31016       2504        524        380       5932     631114   Grand Totals
     31016       2504        524         36       5932     631114   ELF Image Totals (compressed)
     31016       2504        524         36          0          0   ROM Totals

==============================================================================

    Total RO  Size (Code + RO Data)                31540 (  30.80kB)
    Total RW  Size (RW Data + ZI Data)              6312 (   6.16kB)
    Total ROM Size (Code + RO Data + RW Data)      31576 (  30.84kB)

==============================================================================

